
12345678-1234-5678-90ab-cdef12345678.elf:     file format elf64-littleaarch64
12345678-1234-5678-90ab-cdef12345678.elf
architecture: aarch64, flags 0x00000150:
HAS_SYMS, DYNAMIC, D_PAGED
start address 0x00000000000005b4

Program Header:
    LOAD off    0x0000000000001000 vaddr 0x0000000000000000 paddr 0x0000000000000000 align 2**12
         filesz 0x0000000000019238 memsz 0x0000000000019238 flags r-x
    LOAD off    0x000000000001b000 vaddr 0x000000000001a000 paddr 0x000000000001a000 align 2**12
         filesz 0x0000000000000634 memsz 0x000000000000bee8 flags rw-
 DYNAMIC off    0x000000000001b000 vaddr 0x000000000001a000 paddr 0x000000000001a000 align 2**3
         filesz 0x0000000000000110 memsz 0x0000000000000110 flags rw-
   STACK off    0x0000000000000000 vaddr 0x0000000000000000 paddr 0x0000000000000000 align 2**4
         filesz 0x0000000000000000 memsz 0x0000000000000000 flags rw-

Dynamic Section:
  HASH                 0x0000000000018ec0
  GNU_HASH             0x0000000000018d88
  STRTAB               0x0000000000018e88
  SYMTAB               0x0000000000018de0
  STRSZ                0x0000000000000036
  SYMENT               0x0000000000000018
  DEBUG                0x0000000000000000
  RELA                 0x0000000000018ef0
  RELASZ               0x0000000000000558
  RELAENT              0x0000000000000018
  FLAGS_1              0x0000000008000000
  RELACOUNT            0x0000000000000023
private flags = 0x0:

Sections:
Idx Name          Size      VMA               LMA               File off  Algn
  0 .text         00013608  0000000000000000  0000000000000000  00001000  2**4
                  CONTENTS, ALLOC, LOAD, READONLY, CODE
  1 .eh_frame     000040bc  0000000000013608  0000000000013608  00014608  2**3
                  CONTENTS, ALLOC, LOAD, READONLY, DATA
  2 .rodata       000016bc  00000000000176c8  00000000000176c8  000186c8  2**3
                  CONTENTS, ALLOC, LOAD, READONLY, DATA
  3 .gnu.hash     00000034  0000000000018d88  0000000000018d88  00019d88  2**3
                  CONTENTS, ALLOC, LOAD, READONLY, DATA
  4 .ta_head      00000020  0000000000018dc0  0000000000018dc0  00019dc0  2**3
                  CONTENTS, ALLOC, LOAD, READONLY, DATA
  5 .dynsym       000000a8  0000000000018de0  0000000000018de0  00019de0  2**3
                  CONTENTS, ALLOC, LOAD, READONLY, DATA
  6 .dynstr       00000036  0000000000018e88  0000000000018e88  00019e88  2**0
                  CONTENTS, ALLOC, LOAD, READONLY, DATA
  7 .hash         00000030  0000000000018ec0  0000000000018ec0  00019ec0  2**3
                  CONTENTS, ALLOC, LOAD, READONLY, DATA
  8 .rela.dyn     00000348  0000000000018ef0  0000000000018ef0  00019ef0  2**3
                  CONTENTS, ALLOC, LOAD, READONLY, DATA
  9 .dynamic      00000110  000000000001a000  000000000001a000  0001b000  2**3
                  CONTENTS, ALLOC, LOAD, DATA
 10 .got          000000d0  000000000001a110  000000000001a110  0001b110  2**3
                  CONTENTS, ALLOC, LOAD, DATA
 11 .rela.got     00000210  000000000001a1e0  000000000001a1e0  0001b1e0  2**3
                  CONTENTS, ALLOC, LOAD, READONLY, DATA
 12 .data         00000244  000000000001a3f0  000000000001a3f0  0001b3f0  2**3
                  CONTENTS, ALLOC, LOAD, DATA
 13 .bss          0000b8b0  000000000001a638  000000000001a638  0001b634  2**3
                  ALLOC
 14 .debug_info   0002450f  0000000000000000  0000000000000000  0001b634  2**0
                  CONTENTS, READONLY, DEBUGGING, OCTETS
 15 .debug_abbrev 00005031  0000000000000000  0000000000000000  0003fb43  2**0
                  CONTENTS, READONLY, DEBUGGING, OCTETS
 16 .debug_loclists 00015438  0000000000000000  0000000000000000  00044b74  2**0
                  CONTENTS, READONLY, DEBUGGING, OCTETS
 17 .debug_aranges 000009e0  0000000000000000  0000000000000000  00059fb0  2**4
                  CONTENTS, READONLY, DEBUGGING, OCTETS
 18 .debug_rnglists 00000aa2  0000000000000000  0000000000000000  0005a990  2**0
                  CONTENTS, READONLY, DEBUGGING, OCTETS
 19 .debug_macro  0001d153  0000000000000000  0000000000000000  0005b432  2**0
                  CONTENTS, READONLY, DEBUGGING, OCTETS
 20 .debug_line   0000f24f  0000000000000000  0000000000000000  00078585  2**0
                  CONTENTS, READONLY, DEBUGGING, OCTETS
 21 .debug_str    0001db99  0000000000000000  0000000000000000  000877d4  2**0
                  CONTENTS, READONLY, DEBUGGING, OCTETS
 22 .debug_line_str 00001549  0000000000000000  0000000000000000  000a536d  2**0
                  CONTENTS, READONLY, DEBUGGING, OCTETS
 23 .comment      00000012  0000000000000000  0000000000000000  000a68b6  2**0
                  CONTENTS, READONLY
SYMBOL TABLE:
0000000000000000 l    d  .text	0000000000000000 .text
0000000000013608 l    d  .eh_frame	0000000000000000 .eh_frame
00000000000176c8 l    d  .rodata	0000000000000000 .rodata
0000000000018d88 l    d  .gnu.hash	0000000000000000 .gnu.hash
0000000000018dc0 l    d  .ta_head	0000000000000000 .ta_head
0000000000018de0 l    d  .dynsym	0000000000000000 .dynsym
0000000000018e88 l    d  .dynstr	0000000000000000 .dynstr
0000000000018ec0 l    d  .hash	0000000000000000 .hash
0000000000018ef0 l    d  .rela.dyn	0000000000000000 .rela.dyn
000000000001a000 l    d  .dynamic	0000000000000000 .dynamic
000000000001a110 l    d  .got	0000000000000000 .got
000000000001a1e0 l    d  .rela.got	0000000000000000 .rela.got
000000000001a3f0 l    d  .data	0000000000000000 .data
000000000001a638 l    d  .bss	0000000000000000 .bss
0000000000000000 l    d  .debug_info	0000000000000000 .debug_info
0000000000000000 l    d  .debug_abbrev	0000000000000000 .debug_abbrev
0000000000000000 l    d  .debug_loclists	0000000000000000 .debug_loclists
0000000000000000 l    d  .debug_aranges	0000000000000000 .debug_aranges
0000000000000000 l    d  .debug_rnglists	0000000000000000 .debug_rnglists
0000000000000000 l    d  .debug_macro	0000000000000000 .debug_macro
0000000000000000 l    d  .debug_line	0000000000000000 .debug_line
0000000000000000 l    d  .debug_str	0000000000000000 .debug_str
0000000000000000 l    d  .debug_line_str	0000000000000000 .debug_line_str
0000000000000000 l    d  .comment	0000000000000000 .comment
0000000000000000 l    df *ABS*	0000000000000000 memcpy.c
0000000000000000 l    df *ABS*	0000000000000000 ta_rsa_encrypt.c
00000000000000d8 l     F .text	00000000000001c8 generate_rsa_keypair
0000000000018af4 l     O .rodata	0000000000000015 __func__.0
0000000000018b09 l     O .rodata	000000000000001b __func__.1
000000000001a638 l     O .bss	0000000000000008 rsa_keypair
0000000000000000 l    df *ABS*	0000000000000000 user_ta_header.c
00000000000176d0 l     O .rodata	0000000000000001 __compound_literal.6
00000000000176d4 l     O .rodata	0000000000000004 __compound_literal.5
00000000000176d8 l     O .rodata	0000000000000004 __compound_literal.4
00000000000176dc l     O .rodata	0000000000000004 __compound_literal.3
00000000000176e0 l     O .rodata	0000000000000001 __compound_literal.2
00000000000176e1 l     O .rodata	0000000000000001 __compound_literal.1
00000000000176e2 l     O .rodata	0000000000000001 __compound_literal.0
0000000000000000 l    df *ABS*	0000000000000000 stack_check.c
0000000000000000 l    df *ABS*	0000000000000000 trace.c
0000000000018b24 l     O .rodata	0000000000000005 lvl_strs.0
0000000000000000 l    df *ABS*	0000000000000000 snprintk.c
0000000000000b3c l     F .text	0000000000000bb4 kprintf.constprop.0
00000000000177a2 l     O .rodata	0000000000000011 hexdigits
00000000000177b3 l     O .rodata	0000000000000011 HEXDIGITS
0000000000000000 l    df *ABS*	0000000000000000 memchr.c
0000000000000000 l    df *ABS*	0000000000000000 strlen.c
0000000000000000 l    df *ABS*	0000000000000000 trace_ext.c
0000000000000000 l    df *ABS*	0000000000000000 tee_api_objects.c
0000000000000000 l    df *ABS*	0000000000000000 tee_api_operations.c
0000000000003478 l     F .text	0000000000000108 __tee_alg_get_main_alg
0000000000003580 l     F .text	0000000000000258 tee_buffer_update
00000000000037d8 l     F .text	00000000000000f4 ae_update_helper
00000000000038cc l     F .text	000000000000009c __tee_alg_get_class
0000000000003968 l     F .text	000000000000005c reset_operation_state
00000000000039c4 l     F .text	00000000000001ec set_operation_key2
00000000000177ce l     O .rodata	0000000000000012 __func__.0
0000000000000000 l    df *ABS*	0000000000000000 tee_api_panic.c
00000000000078ac l     F .text	000000000000001c check_access
00000000000078d0 l     F .text	0000000000000008 check_res.part.0
00000000000078d8 l     F .text	000000000000005c __utee_check_outbuf_annotation.localalias
0000000000007934 l     F .text	000000000000005c __utee_check_gp11_outbuf_annotation.localalias
0000000000007a04 l     F .text	0000000000000030 __utee_check_attr_in_annotation.localalias
0000000000000000 l    df *ABS*	0000000000000000 user_ta_entry.c
0000000000007a64 l     F .text	00000000000000b0 _get_fn_array
0000000000007b14 l     F .text	0000000000000098 _fini_iterate_phdr_cb
0000000000007bac l     F .text	0000000000000028 ta_header_get_session
0000000000007bd4 l     F .text	0000000000000070 to_utee_params
0000000000007c44 l     F .text	000000000000005c from_utee_params
0000000000007ca0 l     F .text	0000000000000094 _init_iterate_phdr_cb
0000000000007e98 l     F .text	0000000000000094 ta_header_remove_session
0000000000018b29 l     O .rodata	0000000000000016 __func__.0
000000000001a640 l     O .bss	0000000000000008 _num_mod_init
000000000001a648 l     O .bss	0000000000000001 init_done
000000000001a4d0 l     O .data	0000000000000010 ta_sessions
000000000001a4e0 l     O .data	0000000000000010 __phdr_info_head
0000000000000000 l    df *ABS*	0000000000000000 utee_syscalls_a64.o
0000000000000000 l    df *ABS*	0000000000000000 abort.c
0000000000000000 l    df *ABS*	0000000000000000 assert.c
0000000000000000 l    df *ABS*	0000000000000000 tee_api.c
00000000000084e0 l     F .text	000000000000006c copy_param
000000000000854c l     F .text	0000000000000070 copy_gp11_param
00000000000085bc l     F .text	0000000000000098 check_mem_access_rights_params
0000000000008654 l     F .text	0000000000000044 buf_overlaps_no_share_heap
0000000000008698 l     F .text	00000000000000a4 check_invoke_param
000000000000873c l     F .text	00000000000000a4 update_out_param
00000000000087e0 l     F .text	00000000000000a8 update_out_gp11_param
0000000000008a68 l     F .text	00000000000001ac map_tmp_param
0000000000017700 l     O .rodata	000000000000000b __func__.0
000000000001a6b0 l     O .bss	0000000000000008 tee_api_instance_data
0000000000000000 l    df *ABS*	0000000000000000 tee_api_arith_mpi.c
00000000000095d0 l     F .text	0000000000000030 api_panic
0000000000009600 l     F .text	0000000000000030 mpi_panic
0000000000009630 l     F .text	0000000000000098 get_mpi
00000000000096c8 l     F .text	0000000000000068 copy_mpi_to_bigint
0000000000009730 l     F .text	0000000000000160 bigint_binary
0000000000009890 l     F .text	0000000000000020 mpi_is_odd
00000000000098b0 l     F .text	0000000000000028 rng_read
00000000000098d8 l     F .text	000000000000055c mpi_egcd
000000000001a6c0 l     O .bss	0000000000003800 data.18
000000000000a3a4 l     F .text	00000000000001e4 bigint_binary_mod
0000000000018b3f l     O .rodata	0000000000000008 __func__.15
0000000000018b47 l     O .rodata	000000000000000e __func__.11
0000000000018b55 l     O .rodata	0000000000000009 __func__.2
0000000000018b5e l     O .rodata	0000000000000012 __func__.17
0000000000018b70 l     O .rodata	000000000000000f __func__.16
0000000000018b7f l     O .rodata	000000000000001f __func__.14
0000000000018b9e l     O .rodata	0000000000000019 __func__.13
0000000000018bb7 l     O .rodata	0000000000000012 __func__.7
0000000000018bc9 l     O .rodata	0000000000000015 __func__.12
0000000000018bde l     O .rodata	000000000000000e __func__.10
0000000000018bec l     O .rodata	000000000000000e __func__.9
0000000000018bfa l     O .rodata	000000000000000e __func__.8
0000000000018c08 l     O .rodata	0000000000000011 __func__.6
0000000000018c19 l     O .rodata	0000000000000018 __func__.5
0000000000018c31 l     O .rodata	0000000000000011 __func__.4
0000000000018c42 l     O .rodata	000000000000001d __func__.3
0000000000018c5f l     O .rodata	0000000000000019 __func__.1
0000000000018c78 l     O .rodata	0000000000000015 __func__.0
0000000000000000 l    df *ABS*	0000000000000000 tee_api_property.c
000000000000b7fc l     F .text	000000000000006c propset_get
000000000000b868 l     F .text	000000000000002c is_propset_pseudo_handle
000000000000b894 l     F .text	0000000000000154 propget_get_ext_prop
000000000000b9e8 l     F .text	0000000000000200 propget_get_property
00000000000177e0 l     O .rodata	0000000000000004 __compound_literal.3
00000000000177e4 l     O .rodata	0000000000000004 __compound_literal.2
00000000000177e8 l     O .rodata	0000000000000004 __compound_literal.1
00000000000177ec l     O .rodata	0000000000000004 __compound_literal.0
0000000000000000 l    df *ABS*	0000000000000000 tee_system_pta.c
000000000000c838 l     F .text	0000000000000084 invoke_system_pta
00000000000177f0 l     O .rodata	0000000000000010 uuid.2
0000000000017800 l     O .rodata	000000000000000a __func__.1
000000000001780a l     O .rodata	0000000000000017 __func__.0
000000000001dec0 l     O .bss	0000000000000008 sess.3
0000000000000000 l    df *ABS*	0000000000000000 tcb.c
0000000000018c8d l     O .rodata	0000000000000010 __func__.1
0000000000018c9d l     O .rodata	0000000000000010 __func__.0
000000000001dec8 l     O .bss	0000000000000008 _tls_size
000000000001ded0 l     O .bss	0000000000000008 _tcb
0000000000000000 l    df *ABS*	0000000000000000 base64.c
0000000000018cad l     O .rodata	0000000000000041 base64_table
0000000000000000 l    df *ABS*	0000000000000000 bignum.c
000000000000d0cc l     F .text	0000000000000058 mpi_get_digit
000000000000d124 l     F .text	0000000000000068 mpi_select
000000000000d18c l     F .text	000000000000001c mpi_montmul.isra.0
000000000000d1a8 l     F .text	0000000000000080 mpi_montred
000000000000d3bc l     F .text	000000000000006c mbedtls_mpi_resize_clear
000000000000de60 l     F .text	00000000000000a4 add_sub_mpi
000000000000edc4 l     F .text	00000000000000d0 mpi_check_small_factors
000000000000f770 l     F .text	00000000000002ac mpi_miller_rabin
0000000000017824 l     O .rodata	00000000000002a0 small_prime
0000000000017ac4 l     O .rodata	0000000000000024 gcd_pairs
0000000000000000 l    df *ABS*	0000000000000000 bignum_core.c
0000000000000000 l    df *ABS*	0000000000000000 constant_time.c
0000000000011570 l     F .text	0000000000000020 mbedtls_ct_uchar_mask_of_range
0000000000000000 l    df *ABS*	0000000000000000 platform_util.c
0000000000011d4c l     F .text	0000000000000064 mbedtls_get_unaligned_uint32.localalias
0000000000011db0 l     F .text	0000000000000020 mbedtls_put_unaligned_uint32.localalias
000000000001a568 l     O .data	0000000000000008 memset_func
0000000000000000 l    df *ABS*	0000000000000000 bget_malloc.c
0000000000011f0c l     F .text	0000000000000024 myrand
0000000000011f30 l     F .text	0000000000000010 _assert_trap
0000000000011f40 l     F .text	0000000000000028 bget_buf_size.part.0
00000000000127cc l     F .text	0000000000000090 stats.constprop.0
0000000000018cee l     O .rodata	000000000000000e __func__.2
0000000000018cfc l     O .rodata	0000000000000005 __func__.9
0000000000018d01 l     O .rodata	0000000000000006 __func__.8
0000000000018d07 l     O .rodata	0000000000000005 __func__.6
0000000000018d0c l     O .rodata	0000000000000006 __func__.7
0000000000018d12 l     O .rodata	0000000000000006 __func__.5
0000000000018d18 l     O .rodata	0000000000000007 __func__.4
0000000000018d1f l     O .rodata	000000000000000f __func__.3
0000000000018d2e l     O .rodata	0000000000000003 CSWTCH.111
0000000000018d31 l     O .rodata	0000000000000014 __func__.1
0000000000018d45 l     O .rodata	0000000000000013 __func__.0
000000000001a570 l     O .data	0000000000000008 next
000000000001dee0 l     O .bss	0000000000000008 bchain
000000000001a578 l     O .data	0000000000000038 mypoolset
000000000001a5b0 l     O .data	0000000000000080 malloc_ctx
0000000000000000 l    df *ABS*	0000000000000000 snprintf.c
0000000000000000 l    df *ABS*	0000000000000000 memmove.c
0000000000000000 l    df *ABS*	0000000000000000 memset.c
0000000000000000 l    df *ABS*	0000000000000000 strcmp.c
0000000000000000 l    df *ABS*	0000000000000000 strlcpy.c
0000000000000000 l    df *ABS*	0000000000000000 mempool.c
0000000000018d58 l     O .rodata	0000000000000013 __func__.2
0000000000018d6b l     O .rodata	000000000000000b __func__.1
0000000000018d76 l     O .rodata	000000000000000e __func__.0
0000000000000000 l    df *ABS*	0000000000000000 consttime_memcmp.c
0000000000000000 l    df *ABS*	0000000000000000 
000000000001a000 l     O *ABS*	0000000000000000 _DYNAMIC
000000000001a128 l     O *ABS*	0000000000000000 _GLOBAL_OFFSET_TABLE_
00000000000018f4 g     F .text	0000000000000078 putchar
0000000000009fbc g     F .text	0000000000000008 __GP11_TEE_BigIntConvertFromOctetString
000000000000231c g     F .text	0000000000000114 TEE_PopulateTransientObject
0000000000010c78 g     F .text	0000000000000070 mbedtls_mpi_core_add_if
0000000000005c9c g     F .text	0000000000000010 __GP11_TEE_AEInit
000000000000b5c8 g     F .text	0000000000000004 TEE_BigIntConvertToFMM
000000000000adec g     F .text	000000000000000c TEE_BigIntSquareMod
000000000000a588 g     F .text	00000000000001a8 TEE_BigIntShiftRight
0000000000012eb4 g     F .text	00000000000000d4 raw_malloc_add_pool
000000000000ca38 g     F .text	00000000000000f0 tee_invoke_supp_plugin
000000000001108c g     F .text	00000000000000b0 mbedtls_mpi_core_fill_random
000000000000d2d0 g     F .text	00000000000000ec mbedtls_mpi_grow
0000000000004d64 g     F .text	0000000000000070 TEE_DigestUpdate
000000000000c584 g     F .text	0000000000000138 __GP11_TEE_GetPropertyName
00000000000094c4 g     F .text	00000000000000ec TEE_Realloc
0000000000010b9c g     F .text	00000000000000a0 mbedtls_mpi_core_shift_r
0000000000004b9c g     F .text	0000000000000020 TEE_SetOperationKey2
0000000000005a18 g     F .text	00000000000000ac __GP11_TEE_MACComputeFinal
0000000000007a38 g     F .text	000000000000002c __utee_check_inout_annotation
0000000000012bfc g     F .text	0000000000000010 raw_free
00000000000017b4 g     F .text	0000000000000100 printf
000000000000a94c g     F .text	000000000000002c TEE_BigIntAbs
0000000000005428 g     F .text	00000000000000ac __GP11_TEE_CipherUpdate
0000000000002544 g     F .text	000000000000004c TEE_InitRefAttribute
00000000000081d4 g     F .text	000000000000000c _utee_log
0000000000008ebc g     F .text	000000000000018c TEE_InvokeTACommand
000000000000262c g     F .text	000000000000004c __GP11_TEE_InitValueAttribute
00000000000078d8 g     F .text	000000000000005c __utee_check_outbuf_annotation
0000000000010ae4 g     F .text	00000000000000b8 mbedtls_mpi_core_write_be
000000000000d23c g     F .text	0000000000000028 mbedtls_mpi_init_mempool
0000000000008354 g     F .text	000000000000000c _utee_cryp_random_number_generate
000000000000d910 g     F .text	0000000000000010 mbedtls_mpi_write_binary
0000000000005fb0 g     F .text	0000000000000208 TEE_AEEncryptFinal
0000000000000a0c g     F .text	0000000000000058 vsnprintk
000000000000df98 g     F .text	0000000000000084 mbedtls_mpi_sub_int
00000000000069d4 g     F .text	000000000000017c __GP11_TEE_AsymmetricDecrypt
0000000000013330 g     F .text	0000000000000058 memmove
00000000000131fc g     F .text	00000000000000dc snprintf
000000000000a31c g     F .text	0000000000000088 TEE_BigIntCmpS32
00000000000091e8 g     F .text	0000000000000008 __GP11_TEE_MemMove
000000000001a4c8 g     O .data	0000000000000008 __stack_chk_guard
0000000000011ae4 g     F .text	00000000000001f4 mbedtls_ct_rsaes_pkcs1_v15_unpadding
00000000000025e0 g     F .text	000000000000004c TEE_InitValueAttribute
000000000000d428 g     F .text	0000000000000118 mbedtls_mpi_shrink
0000000000009200 g     F .text	0000000000000008 __GP11_TEE_MemFill
000000000000a978 g     F .text	000000000000000c TEE_BigIntAdd
00000000000082f4 g     F .text	000000000000000c _utee_cryp_obj_restrict_usage
0000000000002590 g     F .text	0000000000000050 __GP11_TEE_InitRefAttribute
00000000000176f0 g     O .rodata	0000000000000008 ta_heap_size
0000000000002284 g     F .text	0000000000000098 TEE_ResetTransientObject
000000000000839c g     F .text	000000000000000c _utee_asymm_operate
000000000000ce74 g     F .text	0000000000000018 _base64_enc_len
000000000000e284 g     F .text	0000000000000210 mbedtls_mpi_read_string
00000000000028ec g     F .text	00000000000000d8 __GP11_TEE_GenerateKey
00000000000051a8 g     F .text	00000000000000dc TEE_CipherInit
0000000000010d2c g     F .text	00000000000001cc mbedtls_mpi_core_mla
000000000000a990 g     F .text	00000000000000ec TEE_BigIntNeg
00000000000083f0 g     F .text	000000000000000c _utee_storage_free_enum
0000000000000000 g       .text	0000000000000000 __text_start
000000000000c750 g     F .text	00000000000000e8 TEE_GetNextProperty
0000000000002e50 g     F .text	0000000000000050 TEE_StartPersistentObjectEnumerator
000000000000da30 g     F .text	0000000000000030 mbedtls_mpi_shift_r
00000000000131e4 g     F .text	0000000000000018 malloc_buffer_overlaps_heap
00000000000082a0 g     F .text	000000000000000c _utee_hash_init
000000000000add4 g     F .text	000000000000000c TEE_BigIntSubMod
0000000000010000 g     F .text	000000000000034c mbedtls_mpi_gen_prime
000000000000c2a0 g     F .text	00000000000000a4 TEE_GetPropertyAsBinaryBlock
000000000000d70c g     F .text	000000000000002c mbedtls_mpi_get_bit
000000000001113c g     F .text	00000000000000f0 mbedtls_mpi_core_random
00000000000176e8 g     O .rodata	0000000000000008 __ta_no_share_heap_size
000000000000d8a4 g     F .text	000000000000005c mbedtls_mpi_read_binary
0000000000005bd8 g     F .text	00000000000000c4 TEE_AEInit
0000000000000850 g     F .text	00000000000000ec trace_printf
000000000000eebc g     F .text	000000000000000c mbedtls_mpi_montmul
000000000000845c g     F .text	000000000000000c _utee_cache_operation
0000000000000000 g     F .text	00000000000000d8 memcpy
0000000000011254 g     F .text	0000000000000234 mbedtls_mpi_core_exp_mod
000000000000b5cc g     F .text	00000000000000dc TEE_BigIntConvertFromFMM
00000000000078c8 g     F .text	0000000000000008 TEE_Panic
0000000000004c08 g     F .text	000000000000015c TEE_CopyOperation
00000000000018b4 g     F .text	0000000000000040 puts
000000000000b6a8 g     F .text	0000000000000154 TEE_BigIntComputeFMM
00000000000131a0 g     F .text	0000000000000014 malloc_get_stats
0000000000009328 g     F .text	0000000000000028 TEE_GetREETime
0000000000013164 g     F .text	000000000000003c raw_malloc_get_stats
0000000000002d68 g     F .text	0000000000000098 TEE_AllocatePersistentObjectEnumerator
000000000001a3f0 g     O .data	00000000000000d8 ta_props
0000000000009460 g     F .text	0000000000000008 __GP11_TEE_Malloc
0000000000006538 g     F .text	0000000000000190 TEE_AsymmetricEncrypt
0000000000008d70 g     F .text	000000000000014c __GP11_TEE_OpenTASession
0000000000007990 g     F .text	0000000000000040 __utee_check_instring_annotation
0000000000012dc8 g     F .text	000000000000001c malloc
000000000000c570 g     F .text	0000000000000004 TEE_FreePropertyEnumerator
00000000000115d4 g     F .text	0000000000000010 mbedtls_ct_mpi_uint_mask
0000000000005284 g     F .text	0000000000000008 __GP11_TEE_CipherInit
00000000000132d8 g     F .text	0000000000000058 vsnprintf
0000000000002814 g     F .text	00000000000000d8 TEE_GenerateKey
000000000001a630 g     O .data	0000000000000004 trace_level
0000000000002ac0 g     F .text	0000000000000008 __GP11_TEE_OpenPersistentObject
000000000000a27c g     F .text	00000000000000a0 TEE_BigIntCmp
00000000000176c8 g     O .rodata	0000000000000008 ta_num_props
0000000000012598 g     F .text	00000000000000d0 bgetr
00000000000083b4 g     F .text	000000000000000c _utee_storage_obj_open
00000000000091f4 g     F .text	0000000000000008 __GP11_TEE_MemCompare
000000000001357c g     F .text	000000000000001c mempool_free
000000000000528c g     F .text	000000000000019c TEE_CipherUpdate
00000000000082ac g     F .text	000000000000000c _utee_hash_update
0000000000009fc4 g     F .text	00000000000000d0 TEE_BigIntConvertToOctetString
0000000000004784 g     F .text	00000000000001b8 TEE_GetOperationInfoMultiple
000000000000d824 g     F .text	0000000000000008 mbedtls_mpi_bitlen
000000000000a738 g     F .text	000000000000008c TEE_BigIntGetBit
00000000000176f8 g     O .rodata	0000000000000003 trace_ext_prefix
0000000000008414 g     F .text	000000000000000c _utee_storage_next_enum
0000000000012bec g     F .text	0000000000000010 raw_malloc
000000000001224c g     F .text	0000000000000088 bgetz
00000000000115e4 g     F .text	0000000000000018 mbedtls_ct_size_bool_eq
00000000000091d8 g     F .text	000000000000000c TEE_GetInstanceData
0000000000009230 g     F .text	000000000000003c TEE_Wait
000000000000e01c g     F .text	00000000000001b4 mbedtls_mpi_mul_mpi
000000000000a730 g     F .text	0000000000000008 __GP11_TEE_BigIntShiftRight
0000000000011e34 g     F .text	0000000000000020 mbedtls_put_unaligned_uint64
00000000000095c0 g     F .text	0000000000000008 TEE_CacheFlush
000000000000062c g     F .text	0000000000000224 trace_vprintf
00000000000002a8 g     F .text	0000000000000014 TA_DestroyEntryPoint
000000000000d228 g     F .text	0000000000000014 mbedtls_mpi_init
00000000000083cc g     F .text	000000000000000c _utee_storage_obj_del
000000000000d7c4 g     F .text	0000000000000060 mbedtls_mpi_lsb
00000000000056f4 g     F .text	00000000000000b8 __GP11_TEE_CipherDoFinal
0000000000008488 g     F .text	0000000000000044 _assert_log
0000000000005ea8 g     F .text	0000000000000108 __GP11_TEE_AEUpdate
0000000000008288 g     F .text	000000000000000c _utee_cryp_state_copy
000000000000b5a8 g     F .text	0000000000000008 TEE_BigIntFMMContextSizeInU32
000000000000c970 g     F .text	00000000000000c8 tee_unmap
0000000000005ac4 g     F .text	0000000000000108 TEE_MACCompareFinal
0000000000011618 g     F .text	0000000000000030 mbedtls_ct_uint_if
0000000000002d04 g     F .text	000000000000005c TEE_RenamePersistentObject
0000000000004ddc g     F .text	0000000000000174 TEE_DigestDoFinal
0000000000002430 g     F .text	0000000000000114 __GP11_TEE_PopulateTransientObject
0000000000009e34 g     F .text	0000000000000050 _TEE_MathAPI_Init
0000000000011e54 g     F .text	0000000000000098 mbedtls_xor
000000000000cb28 g     F .text	0000000000000240 __utee_tcb_init
000000000000df04 g     F .text	0000000000000008 mbedtls_mpi_add_mpi
0000000000008468 g     F .text	0000000000000020 abort
000000000000fa1c g     F .text	0000000000000094 mbedtls_mpi_random
00000000000005d0 g     F .text	0000000000000030 __stack_chk_fail
00000000000079d8 g     F .text	000000000000002c __utee_check_out_annotation
000000000001dee8 g     O .bss	0000000000008000 ta_heap
000000000000adf8 g     F .text	0000000000000158 TEE_BigIntInvMod
0000000000004dd4 g     F .text	0000000000000008 __GP11_TEE_DigestUpdate
0000000000007d34 g     F .text	0000000000000154 __utee_call_elf_init_fn
0000000000001ad0 g     F .text	00000000000000d0 __GP11_TEE_GetObjectInfo
00000000000002c4 g     F .text	0000000000000004 TA_CloseSessionEntryPoint
0000000000008210 g     F .text	000000000000000c _utee_close_ta_session
000000000000b570 g     F .text	0000000000000008 __GP11_TEE_BigIntInitFMMContext
0000000000001c58 g     F .text	00000000000000c8 __GP11_TEE_GetObjectInfo1
0000000000006840 g     F .text	0000000000000194 TEE_AsymmetricDecrypt
00000000000029c4 g     F .text	00000000000000fc TEE_OpenPersistentObject
00000000000114b8 g     F .text	0000000000000028 mbedtls_mpi_core_check_zero_ct
000000000000df0c g     F .text	0000000000000008 mbedtls_mpi_sub_mpi
0000000000013598 g     F .text	0000000000000070 consttime_memcmp
00000000000081c8 g     F .text	000000000000000c _utee_return
00000000000081e0 g     F .text	000000000000000c __utee_panic
0000000000011590 g     F .text	0000000000000034 mbedtls_ct_memcmp
000000000000cd68 g     F .text	000000000000001c __tls_get_addr
00000000000002c8 g     F .text	00000000000002ec TA_InvokeCommandEntryPoint
0000000000007e88 g     F .text	0000000000000010 __utee_call_elf_fini_fn
0000000000012e6c g     F .text	0000000000000014 free_wipe
00000000000134c8 g     F .text	0000000000000064 mempool_alloc
00000000000081bc g     F .text	000000000000000c _utee_panic
0000000000012e88 g     F .text	000000000000002c raw_malloc_init_ctx
000000000001352c g     F .text	0000000000000050 mempool_calloc
0000000000008450 g     F .text	000000000000000c _utee_cryp_obj_generate_key
0000000000008438 g     F .text	000000000000000c _utee_storage_obj_trunc
0000000000002778 g     F .text	000000000000009c TEE_CopyObjectAttributes
000000000001a4f0 g     O .data	0000000000000078 tee_props
0000000000008240 g     F .text	000000000000000c _utee_unmask_cancellation
000000000000c51c g     F .text	000000000000000c TEE_ResetPropertyEnumerator
0000000000012de4 g     F .text	0000000000000020 calloc
0000000000009350 g     F .text	0000000000000110 TEE_Malloc
00000000000089e8 g     F .text	0000000000000080 TEE_CheckMemoryAccessRights
0000000000011d4c g     F .text	0000000000000064 mbedtls_get_unaligned_uint32
000000000000c344 g     F .text	00000000000000ec TEE_GetPropertyAsUUID
00000000000081ec g     F .text	000000000000000c _utee_get_property
0000000000004f50 g     F .text	00000000000000ac __GP11_TEE_DigestDoFinal
000000000000a844 g     F .text	00000000000000b8 TEE_BigIntSetBit
000000000000d6a0 g     F .text	000000000000006c mbedtls_mpi_lset
0000000000004bbc g     F .text	000000000000004c __GP11_TEE_SetOperationKey2
00000000000030f8 g     F .text	00000000000000d0 TEE_ReadObjectData
0000000000001dfc g     F .text	000000000000010c TEE_GetObjectBufferAttribute
00000000000002bc g     F .text	0000000000000008 TA_OpenSessionEntryPoint
0000000000011488 g     F .text	0000000000000030 mbedtls_mpi_core_sub_int
0000000000003bb0 g     F .text	0000000000000040 TEE_FreeOperation
000000000000cd84 g     F .text	00000000000000f0 dl_iterate_phdr
0000000000025ee8 g       .bss	0000000000000000 __ftrace_buf_end
000000000001a6a8 g     O .bss	0000000000000004 ta_param_types
000000000000e97c g     F .text	0000000000000084 mbedtls_mpi_div_int
000000000000196c g     F .text	0000000000000050 __utee_from_attr
0000000000010a38 g     F .text	00000000000000ac mbedtls_mpi_core_write_le
000000000000ff10 g     F .text	00000000000000f0 mbedtls_mpi_is_prime_ext
000000000000b4c0 g     F .text	00000000000000a0 TEE_BigIntIsProbablePrime
0000000000011db0 g     F .text	0000000000000020 mbedtls_put_unaligned_uint32
000000000000e1d0 g     F .text	00000000000000b4 mbedtls_mpi_mul_int
0000000000002c90 g     F .text	0000000000000048 TEE_CloseAndDeletePersistentObject1
000000000000eecc g     F .text	000000000000065c mbedtls_mpi_exp_mod
00000000000117f4 g     F .text	00000000000000bc mbedtls_mpi_safe_cond_assign
000000000000bbe8 g     F .text	0000000000000270 TEE_GetPropertyAsString
00000000000119e8 g     F .text	00000000000000fc mbedtls_mpi_lt_mpi_ct
0000000000006298 g     F .text	00000000000001dc TEE_AEDecryptFinal
0000000000009e84 g     F .text	0000000000000060 TEE_BigIntInit
000000000000a094 g     F .text	000000000000006c __GP11_TEE_BigIntConvertToOctetString
000000000000a8fc g     F .text	0000000000000050 TEE_BigIntAssign
00000000000079d0 g     F .text	0000000000000004 __utee_check_outstring_annotation
00000000000091e4 g     F .text	0000000000000004 TEE_MemMove
0000000000011eec g     F .text	0000000000000020 mbedtls_platform_zeroize
0000000000009eec g     F .text	00000000000000d0 TEE_BigIntConvertFromOctetString
0000000000008390 g     F .text	000000000000000c _utee_authenc_dec_final
000000000000da60 g     F .text	0000000000000098 mbedtls_mpi_cmp_abs
0000000000008420 g     F .text	000000000000000c _utee_storage_obj_read
00000000000057ac g     F .text	00000000000000a4 TEE_MACInit
0000000000006b50 g     F .text	0000000000000170 TEE_AsymmetricSignDigest
000000000000173c g     F .text	000000000000002c memchr
0000000000008918 g     F .text	0000000000000068 TEE_UnmaskCancellation
0000000000001a0c g     F .text	00000000000000c4 TEE_GetObjectInfo
000000000001034c g     F .text	0000000000000410 mbedtls_mpi_self_test
0000000000007934 g     F .text	000000000000005c __utee_check_gp11_outbuf_annotation
0000000000008444 g     F .text	000000000000000c _utee_storage_obj_seek
0000000000005ddc g     F .text	00000000000000cc TEE_AEUpdate
00000000000021ec g     F .text	0000000000000098 TEE_FreeTransientObject
00000000000108a0 g     F .text	000000000000007c mbedtls_mpi_core_cond_swap
0000000000008234 g     F .text	000000000000000c _utee_check_access_rights
00000000000109a8 g     F .text	0000000000000090 mbedtls_mpi_core_read_be
0000000000009048 g     F .text	000000000000017c __GP11_TEE_InvokeTACommand
000000000000dbcc g     F .text	0000000000000084 mbedtls_mpi_cmp_int
000000000000cfa0 g     F .text	000000000000012c _base64_dec
0000000000004704 g     F .text	000000000000002c __GP11_TEE_FreeOperation
00000000000083fc g     F .text	000000000000000c _utee_storage_reset_enum
0000000000011738 g     F .text	00000000000000bc mbedtls_ct_base64_dec_value
000000000001285c g     F .text	00000000000002d4 bget_main_test
0000000000007408 g     F .text	0000000000000064 rand
0000000000007a04 g     F .text	0000000000000030 __utee_check_attr_in_annotation
0000000000008378 g     F .text	000000000000000c _utee_authenc_update_payload
0000000000004730 g     F .text	0000000000000054 TEE_GetOperationInfo
000000000000ad5c g     F .text	000000000000006c TEE_BigIntMod
000000000000eab4 g     F .text	0000000000000098 mbedtls_mpi_mod_int
0000000000006cc0 g     F .text	0000000000000170 __GP11_TEE_AsymmetricSignDigest
000000000000d848 g     F .text	000000000000005c mbedtls_mpi_read_binary_le
000000000000aba0 g     F .text	00000000000001bc TEE_BigIntDiv
000000000000830c g     F .text	000000000000000c _utee_cryp_obj_alloc
0000000000025ee8 g       .bss	0000000000000000 __ftrace_buf_start
00000000000133c8 g     F .text	0000000000000038 strlcpy
0000000000011684 g     F .text	00000000000000b4 mbedtls_ct_base64_enc_char
000000000000d540 g     F .text	00000000000000cc mbedtls_mpi_copy
000000000001075c g     F .text	0000000000000034 mbedtls_mpi_core_clz
000000000000746c g     F .text	0000000000000440 TEE_IsAlgorithmSupported
0000000000012b30 g     F .text	0000000000000018 malloc_reset_stats
000000000000c430 g     F .text	00000000000000ec TEE_GetPropertyAsIdentity
00000000000016f0 g     F .text	000000000000004c __vsprintf
000000000000c0c4 g     F .text	00000000000000ec TEE_GetPropertyAsU64
0000000000008270 g     F .text	000000000000000c _utee_set_ta_time
000000000000821c g     F .text	000000000000000c _utee_invoke_ta_command
0000000000011d34 g     F .text	0000000000000018 mbedtls_put_unaligned_uint16
0000000000001d20 g     F .text	0000000000000044 TEE_RestrictObjectUsage1
0000000000012e04 g     F .text	000000000000001c realloc
000000000000d60c g     F .text	0000000000000094 mbedtls_mpi_swap
0000000000013400 g     F .text	00000000000000c8 mempool_alloc_pool
000000000000aa7c g     F .text	000000000000011c TEE_BigIntMul
00000000000049d0 g     F .text	000000000000003c TEE_ResetOperation
0000000000012e80 g     F .text	0000000000000008 raw_malloc_get_ctx_size
000000000000d920 g     F .text	0000000000000110 mbedtls_mpi_shift_l
000000000000daf8 g     F .text	00000000000000d4 mbedtls_mpi_cmp_mpi
00000000000091fc g     F .text	0000000000000004 TEE_MemFill
00000000000131b4 g     F .text	0000000000000018 malloc_add_pool
0000000000005858 g     F .text	00000000000000a0 TEE_MACUpdate
000000000000061c g     F .text	0000000000000010 trace_get_level
000000000000dc50 g     F .text	00000000000000f8 mbedtls_mpi_add_abs
0000000000001d64 g     F .text	0000000000000098 TEE_RestrictObjectUsage
000000000000b580 g     F .text	0000000000000010 TEE_BigIntFMMSizeInU32
000000000000befc g     F .text	00000000000000dc TEE_GetPropertyAsBool
0000000000012ca8 g     F .text	0000000000000120 raw_realloc
000000000000b560 g     F .text	0000000000000004 TEE_BigIntInitFMM
00000000000020ec g     F .text	0000000000000028 TEE_CloseObject
00000000000082c4 g     F .text	000000000000000c _utee_cipher_init
0000000000007f2c g     F .text	0000000000000290 __utee_entry
000000000000bfd8 g     F .text	00000000000000ec TEE_GetPropertyAsU32
0000000000013608 g       .text	0000000000000000 __text_end
000000000000af50 g     F .text	0000000000000110 TEE_BigIntRelativePrime
000000000000ea00 g     F .text	00000000000000b4 mbedtls_mpi_mod_mpi
0000000000011968 g     F .text	0000000000000080 mbedtls_mpi_core_lt_ct
00000000000082e8 g     F .text	000000000000000c _utee_cryp_obj_get_info
0000000000010ce8 g     F .text	0000000000000044 mbedtls_mpi_core_sub
0000000000012668 g     F .text	00000000000000d0 bpool
000000000000c528 g     F .text	0000000000000048 TEE_AllocatePropertyEnumerator
000000000000827c g     F .text	000000000000000c _utee_cryp_state_alloc
00000000000088b0 g     F .text	0000000000000068 TEE_GetCancellationFlag
0000000000002c14 g     F .text	000000000000007c __GP11_TEE_CreatePersistentObject
0000000000011cd8 g     F .text	000000000000005c mbedtls_get_unaligned_uint16
000000000000f528 g     F .text	00000000000001e0 mbedtls_mpi_gcd
00000000000092e4 g     F .text	0000000000000044 TEE_SetTAPersistentTime
000000000000d900 g     F .text	0000000000000010 mbedtls_mpi_write_binary_le
0000000000013388 g     F .text	000000000000001c memset
0000000000012b48 g     F .text	00000000000000a4 raw_memalign
000000000000926c g     F .text	0000000000000078 TEE_GetTAPersistentTime
0000000000004b60 g     F .text	000000000000003c __GP11_TEE_SetOperationKey
00000000000061b8 g     F .text	00000000000000e0 __GP11_TEE_AEEncryptFinal
0000000000011dd0 g     F .text	0000000000000064 mbedtls_get_unaligned_uint64
000000000000093c g     F .text	0000000000000004 dhex_dump
00000000000107e4 g     F .text	0000000000000034 mbedtls_mpi_core_bigendian_to_host
0000000000002ac8 g     F .text	000000000000014c TEE_CreatePersistentObject
0000000000008980 g     F .text	0000000000000068 TEE_MaskCancellation
0000000000005cac g     F .text	000000000000009c TEE_AEUpdateAAD
00000000000032ec g     F .text	000000000000005c TEE_TruncateObjectData
0000000000008300 g     F .text	000000000000000c _utee_cryp_obj_get_attr
0000000000001ba0 g     F .text	00000000000000b8 TEE_GetObjectInfo1
00000000000082dc g     F .text	000000000000000c _utee_cipher_final
0000000000000600 g     F .text	000000000000001c trace_set_level
00000000000114e0 g     F .text	000000000000001c mbedtls_mpi_core_to_mont_rep
0000000000001fac g     F .text	0000000000000140 TEE_GetObjectValueAttribute
0000000000004a0c g     F .text	0000000000000154 TEE_SetOperationKey
00000000000115fc g     F .text	000000000000001c mbedtls_ct_mpi_uint_lt
0000000000001f08 g     F .text	00000000000000a4 __GP11_TEE_GetObjectBufferAttribute
0000000000008294 g     F .text	000000000000000c _utee_cryp_state_free
00000000000133a4 g     F .text	0000000000000024 strcmp
0000000000008204 g     F .text	000000000000000c _utee_open_ta_session
000000000000a1bc g     F .text	00000000000000c0 TEE_BigIntConvertToS32
000000000000a984 g     F .text	000000000000000c TEE_BigIntSub
0000000000003470 g     F .text	0000000000000008 __GP11_TEE_SeekObjectData
00000000000005c8 g     F .text	0000000000000008 tahead_get_trace_level
0000000000008408 g     F .text	000000000000000c _utee_storage_start_enum
0000000000003350 g     F .text	0000000000000120 TEE_SeekObjectData
000000000000c8bc g     F .text	00000000000000b4 tee_map_zi
0000000000003348 g     F .text	0000000000000008 __GP11_TEE_TruncateObjectData
000000000000eec8 g     F .text	0000000000000004 mbedtls_mpi_montred
0000000000012e20 g     F .text	0000000000000020 memalign
00000000000115c4 g     F .text	0000000000000010 mbedtls_ct_uint_mask
00000000000054d4 g     F .text	0000000000000220 TEE_CipherDoFinal
0000000000009ee4 g     F .text	0000000000000008 __GP11_TEE_BigIntInit
000000000000a100 g     F .text	00000000000000bc TEE_BigIntConvertFromS32
000000000000df14 g     F .text	0000000000000084 mbedtls_mpi_add_int
0000000000008384 g     F .text	000000000000000c _utee_authenc_enc_final
00000000000131cc g     F .text	0000000000000018 malloc_buffer_is_within_alloced
0000000000008318 g     F .text	000000000000000c _utee_cryp_obj_close
0000000000007400 g     F .text	0000000000000008 __GP11_TEE_GenerateRandom
000000000000b56c g     F .text	0000000000000004 TEE_BigIntInitFMMContext
000000000000824c g     F .text	000000000000000c _utee_mask_cancellation
000000000001a660 g     O .bss	0000000000000008 __ta_no_share_malloc_ctx
00000000000083d8 g     F .text	000000000000000c _utee_storage_obj_rename
0000000000002fc4 g     F .text	0000000000000134 __GP11_TEE_GetNextPersistentObject
000000000000326c g     F .text	0000000000000078 TEE_WriteObjectData
0000000000002e28 g     F .text	0000000000000028 TEE_ResetPersistentObjectEnumerator
00000000000091c4 g     F .text	0000000000000008 __GP11_TEE_CheckMemoryAccessRights
000000000000ab98 g     F .text	0000000000000008 TEE_BigIntSquare
000000000000842c g     F .text	000000000000000c _utee_storage_obj_write
0000000000010790 g     F .text	0000000000000054 mbedtls_mpi_core_bitlen
00000000000002a0 g     F .text	0000000000000008 TA_CreateEntryPoint
00000000000005b4 g     F .text	0000000000000014 __ta_entry
000000000001dee8 g     O .bss	0000000000000000 __ta_no_share_heap
000000000000836c g     F .text	000000000000000c _utee_authenc_update_aad
000000000000ee94 g     F .text	0000000000000028 mbedtls_mpi_montg_init
0000000000000a64 g     F .text	00000000000000d8 snprintk
000000000000a7c4 g     F .text	0000000000000080 TEE_BigIntGetBitCount
000000000000833c g     F .text	000000000000000c _utee_cryp_obj_copy
0000000000005d48 g     F .text	0000000000000094 __GP11_TEE_AEUpdateAAD
000000000000ade0 g     F .text	000000000000000c TEE_BigIntMulMod
000000000000fab0 g     F .text	0000000000000460 mbedtls_mpi_inv_mod
0000000000007a34 g     F .text	0000000000000004 __utee_check_gp11_attr_in_annotation
00000000000070e8 g     F .text	000000000000017c TEE_DeriveKey
000000000001a668 g     O .bss	0000000000000040 ta_params
000000000000e494 g     F .text	00000000000004e8 mbedtls_mpi_div_mpi
00000000000079d4 g     F .text	0000000000000004 __utee_check_gp11_outstring_annotation
000000000000d82c g     F .text	000000000000001c mbedtls_mpi_size
0000000000011f68 g     F .text	00000000000002e4 bget
00000000000031c8 g     F .text	00000000000000a4 __GP11_TEE_ReadObjectData
00000000000021d0 g     F .text	000000000000001c TEE_AllocateTransientObject
00000000000058f8 g     F .text	0000000000000008 __GP11_TEE_MACUpdate
000000000000b5b0 g     F .text	0000000000000018 __GP11_TEE_BigIntFMMContextSizeInU32
000000000000c574 g     F .text	0000000000000010 TEE_StartPropertyEnumerator
0000000000008258 g     F .text	000000000000000c _utee_wait
000000000000d738 g     F .text	000000000000008c mbedtls_mpi_set_bit
0000000000010818 g     F .text	0000000000000064 mbedtls_mpi_core_uint_le_mpi
0000000000009468 g     F .text	000000000000005c TEE_Free
00000000000095c8 g     F .text	0000000000000008 TEE_CacheInvalidate
00000000000084cc g     F .text	0000000000000014 _assert_break
000000000001122c g     F .text	0000000000000028 mbedtls_mpi_core_exp_mod_working_limbs
000000000000adc8 g     F .text	000000000000000c TEE_BigIntAddMod
0000000000011648 g     F .text	000000000000003c mbedtls_ct_mpi_uint_cond_assign
000000000000b564 g     F .text	0000000000000008 __GP11_TEE_BigIntInitFMM
0000000000008264 g     F .text	000000000000000c _utee_get_time
0000000000010c3c g     F .text	000000000000003c mbedtls_mpi_core_add
000000000000c6bc g     F .text	0000000000000094 TEE_GetPropertyName
00000000000095b0 g     F .text	0000000000000008 __GP11_TEE_Realloc
0000000000003bf0 g     F .text	0000000000000b14 TEE_AllocateOperation
0000000000008330 g     F .text	000000000000000c _utee_cryp_obj_populate
000000000001091c g     F .text	000000000000008c mbedtls_mpi_core_read_le
000000000000493c g     F .text	0000000000000094 __GP11_TEE_GetOperationInfoMultiple
00000000000019bc g     F .text	0000000000000050 __utee_from_gp11_attr
00000000000073e0 g     F .text	0000000000000020 TEE_GenerateRandom
0000000000004ffc g     F .text	00000000000001ac TEE_DigestExtract
00000000000091f0 g     F .text	0000000000000004 TEE_MemCompare
00000000000082d0 g     F .text	000000000000000c _utee_cipher_update
0000000000000940 g     F .text	00000000000000cc __vsnprintf
000000000001a650 g     O .bss	0000000000000010 __elf_phdr_info
0000000000002e00 g     F .text	0000000000000028 TEE_FreePersistentObjectEnumerator
0000000000008c14 g     F .text	000000000000015c TEE_OpenTASession
0000000000007264 g     F .text	000000000000017c __GP11_TEE_DeriveKey
00000000000114fc g     F .text	0000000000000074 mbedtls_mpi_core_from_mont_rep
0000000000006474 g     F .text	00000000000000c4 __GP11_TEE_AEDecryptFinal
0000000000001784 g     F .text	0000000000000028 trace_ext_puts
000000000000be58 g     F .text	00000000000000a4 __GP11_TEE_GetPropertyAsString
0000000000013010 g     F .text	0000000000000154 raw_malloc_buffer_is_within_alloced
00000000000017ac g     F .text	0000000000000008 trace_ext_get_thread_id
0000000000012f88 g     F .text	0000000000000088 raw_malloc_buffer_overlaps_heap
0000000000002cd8 g     F .text	000000000000002c TEE_CloseAndDeletePersistentObject
0000000000008348 g     F .text	000000000000000c _utee_cryp_derive_key
000000000000d264 g     F .text	000000000000006c mbedtls_mpi_free
0000000000005850 g     F .text	0000000000000008 __GP11_TEE_MACInit
0000000000006f8c g     F .text	000000000000015c __GP11_TEE_AsymmetricVerifyDigest
0000000000008324 g     F .text	000000000000000c _utee_cryp_obj_reset
00000000000095b8 g     F .text	0000000000000008 TEE_CacheClean
00000000000081f8 g     F .text	000000000000000c _utee_get_property_name_to_index
0000000000010f2c g     F .text	00000000000000f8 mbedtls_mpi_core_montmul
0000000000012c0c g     F .text	000000000000009c raw_calloc
000000000000ce8c g     F .text	0000000000000114 _base64_enc
00000000000118b0 g     F .text	00000000000000b8 mbedtls_mpi_safe_cond_swap
0000000000008360 g     F .text	000000000000000c _utee_authenc_init
0000000000002678 g     F .text	0000000000000100 TEE_CopyObjectAttributes1
0000000000002d60 g     F .text	0000000000000008 __GP11_TEE_RenamePersistentObject
0000000000001768 g     F .text	000000000000001c strlen
000000000000b248 g     F .text	0000000000000278 TEE_BigIntComputeExtendedGcd
00000000000083e4 g     F .text	000000000000000c _utee_storage_alloc_enum
000000000000b060 g     F .text	00000000000001e8 TEE_BigIntExpMod
0000000000009208 g     F .text	0000000000000028 TEE_GetSystemTime
00000000000083a8 g     F .text	000000000000000c _utee_asymm_verify
0000000000018dc0 g     O .ta_head	0000000000000020 ta_head
00000000000122d4 g     F .text	00000000000002c4 brel
000000000000c1b0 g     F .text	00000000000000f0 __GP11_TEE_GetPropertyAsBinaryBlock
000000000000dd48 g     F .text	0000000000000118 mbedtls_mpi_sub_abs
000000000000f708 g     F .text	0000000000000068 mbedtls_mpi_fill_random
0000000000002114 g     F .text	00000000000000bc __GP11_TEE_AllocateTransientObject
00000000000091cc g     F .text	000000000000000c TEE_SetInstanceData
00000000000066c8 g     F .text	0000000000000178 __GP11_TEE_AsymmetricEncrypt
0000000000008228 g     F .text	000000000000000c _utee_get_cancellation_flag
000000000001087c g     F .text	0000000000000024 mbedtls_mpi_core_cond_assign
000000000000eb4c g     F .text	0000000000000278 mbedtls_mpi_write_string
0000000000012e40 g     F .text	0000000000000018 aligned_alloc
0000000000010ef8 g     F .text	0000000000000034 mbedtls_mpi_core_montmul_init
0000000000002ea0 g     F .text	0000000000000124 TEE_GetNextPersistentObject
000000000000b578 g     F .text	0000000000000008 TEE_BigIntInitFMMContext1
0000000000005bcc g     F .text	000000000000000c __GP11_TEE_MACCompareFinal
00000000000032e4 g     F .text	0000000000000008 __GP11_TEE_WriteObjectData
0000000000011024 g     F .text	0000000000000068 mbedtls_mpi_core_get_mont_r2_unsafe
0000000000008888 g     F .text	0000000000000028 TEE_CloseTASession
0000000000006e30 g     F .text	000000000000015c TEE_AsymmetricVerifyDigest
00000000000083c0 g     F .text	000000000000000c _utee_storage_obj_create
000000000000b590 g     F .text	0000000000000018 __GP11_TEE_BigIntFMMSizeInU32
0000000000012e58 g     F .text	0000000000000014 free
0000000000012738 g     F .text	0000000000000094 bstats
0000000000005900 g     F .text	0000000000000118 TEE_MACComputeFinal
000000000001ded8 g     O .bss	0000000000000008 mbedtls_mpi_mempool
00000000000082b8 g     F .text	000000000000000c _utee_hash_final



Disassembly of section .text:

0000000000000000 <memcpy>:
memcpy():
/usr/src/debug/optee-os-stm32mp/4.0.0-stm32mp-r1/lib/libutils/isoc/newlib/memcpy.c:99
       0:	aa0003e5 	mov	x5, x0
/usr/src/debug/optee-os-stm32mp/4.0.0-stm32mp-r1/lib/libutils/isoc/newlib/memcpy.c:106
       4:	f1007c5f 	cmp	x2, #0x1f
       8:	540004c9 	b.ls	a0 <memcpy+0xa0>  // b.plast
/usr/src/debug/optee-os-stm32mp/4.0.0-stm32mp-r1/lib/libutils/isoc/newlib/memcpy.c:106 (discriminator 1)
       c:	aa010006 	orr	x6, x0, x1
      10:	f24008c6 	ands	x6, x6, #0x7
      14:	540005a1 	b.ne	c8 <memcpy+0xc8>  // b.any
      18:	d1008048 	sub	x8, x2, #0x20
/usr/src/debug/optee-os-stm32mp/4.0.0-stm32mp-r1/lib/libutils/isoc/newlib/memcpy.c:108
      1c:	aa0103e4 	mov	x4, x1
      20:	927be908 	and	x8, x8, #0xffffffffffffffe0
/usr/src/debug/optee-os-stm32mp/4.0.0-stm32mp-r1/lib/libutils/isoc/newlib/memcpy.c:107
      24:	aa0003e3 	mov	x3, x0
      28:	91008108 	add	x8, x8, #0x20
      2c:	8b080005 	add	x5, x0, x8
/usr/src/debug/optee-os-stm32mp/4.0.0-stm32mp-r1/lib/libutils/isoc/newlib/memcpy.c:112
      30:	f9400087 	ldr	x7, [x4]
      34:	f9000067 	str	x7, [x3]
/usr/src/debug/optee-os-stm32mp/4.0.0-stm32mp-r1/lib/libutils/isoc/newlib/memcpy.c:115
      38:	91008084 	add	x4, x4, #0x20
      3c:	91008063 	add	x3, x3, #0x20
/usr/src/debug/optee-os-stm32mp/4.0.0-stm32mp-r1/lib/libutils/isoc/newlib/memcpy.c:113
      40:	f85e8087 	ldur	x7, [x4, #-24]
      44:	f81e8067 	stur	x7, [x3, #-24]
/usr/src/debug/optee-os-stm32mp/4.0.0-stm32mp-r1/lib/libutils/isoc/newlib/memcpy.c:114
      48:	f85f0087 	ldur	x7, [x4, #-16]
      4c:	f81f0067 	stur	x7, [x3, #-16]
/usr/src/debug/optee-os-stm32mp/4.0.0-stm32mp-r1/lib/libutils/isoc/newlib/memcpy.c:115
      50:	f85f8087 	ldur	x7, [x4, #-8]
      54:	f81f8067 	stur	x7, [x3, #-8]
/usr/src/debug/optee-os-stm32mp/4.0.0-stm32mp-r1/lib/libutils/isoc/newlib/memcpy.c:111
      58:	eb05007f 	cmp	x3, x5
      5c:	54fffea1 	b.ne	30 <memcpy+0x30>  // b.any
      60:	8b080021 	add	x1, x1, x8
      64:	92401043 	and	x3, x2, #0x1f
/usr/src/debug/optee-os-stm32mp/4.0.0-stm32mp-r1/lib/libutils/isoc/newlib/memcpy.c:120
      68:	f27d045f 	tst	x2, #0x18
      6c:	54000320 	b.eq	d0 <memcpy+0xd0>  // b.none
      70:	d1002063 	sub	x3, x3, #0x8
      74:	d343fc64 	lsr	x4, x3, #3
      78:	91000488 	add	x8, x4, #0x1
/usr/src/debug/optee-os-stm32mp/4.0.0-stm32mp-r1/lib/libutils/isoc/newlib/memcpy.c:121
      7c:	f8667827 	ldr	x7, [x1, x6, lsl #3]
      80:	f82678a7 	str	x7, [x5, x6, lsl #3]
/usr/src/debug/optee-os-stm32mp/4.0.0-stm32mp-r1/lib/libutils/isoc/newlib/memcpy.c:120
      84:	eb06009f 	cmp	x4, x6
      88:	910004c6 	add	x6, x6, #0x1
      8c:	54ffff81 	b.ne	7c <memcpy+0x7c>  // b.any
      90:	d37df103 	lsl	x3, x8, #3
      94:	92400842 	and	x2, x2, #0x7
/usr/src/debug/optee-os-stm32mp/4.0.0-stm32mp-r1/lib/libutils/isoc/newlib/memcpy.c:126
      98:	8b0300a5 	add	x5, x5, x3
/usr/src/debug/optee-os-stm32mp/4.0.0-stm32mp-r1/lib/libutils/isoc/newlib/memcpy.c:127
      9c:	8b030021 	add	x1, x1, x3
/usr/src/debug/optee-os-stm32mp/4.0.0-stm32mp-r1/lib/libutils/isoc/newlib/memcpy.c:130
      a0:	d1000446 	sub	x6, x2, #0x1
      a4:	b4000102 	cbz	x2, c4 <memcpy+0xc4>
/usr/src/debug/optee-os-stm32mp/4.0.0-stm32mp-r1/lib/libutils/isoc/newlib/memcpy.c:99
      a8:	d2800002 	mov	x2, #0x0                   	// #0
      ac:	d503201f 	nop
/usr/src/debug/optee-os-stm32mp/4.0.0-stm32mp-r1/lib/libutils/isoc/newlib/memcpy.c:131
      b0:	38626824 	ldrb	w4, [x1, x2]
/usr/src/debug/optee-os-stm32mp/4.0.0-stm32mp-r1/lib/libutils/isoc/newlib/memcpy.c:130
      b4:	eb0200df 	cmp	x6, x2
/usr/src/debug/optee-os-stm32mp/4.0.0-stm32mp-r1/lib/libutils/isoc/newlib/memcpy.c:131
      b8:	382268a4 	strb	w4, [x5, x2]
/usr/src/debug/optee-os-stm32mp/4.0.0-stm32mp-r1/lib/libutils/isoc/newlib/memcpy.c:130
      bc:	91000442 	add	x2, x2, #0x1
      c0:	54ffff81 	b.ne	b0 <memcpy+0xb0>  // b.any
/usr/src/debug/optee-os-stm32mp/4.0.0-stm32mp-r1/lib/libutils/isoc/newlib/memcpy.c:135
      c4:	d65f03c0 	ret
/usr/src/debug/optee-os-stm32mp/4.0.0-stm32mp-r1/lib/libutils/isoc/newlib/memcpy.c:130
      c8:	d1000446 	sub	x6, x2, #0x1
      cc:	17fffff7 	b	a8 <memcpy+0xa8>
/usr/src/debug/optee-os-stm32mp/4.0.0-stm32mp-r1/lib/libutils/isoc/newlib/memcpy.c:120
      d0:	aa0303e2 	mov	x2, x3
      d4:	17fffff3 	b	a0 <memcpy+0xa0>

00000000000000d8 <generate_rsa_keypair>:
generate_rsa_keypair():
/root/STM32CubeIDE/workspace_1.18.1/tf_secure_inference/CA35/ta_tf_speech/ta/ta_rsa_encrypt.c:31
      d8:	d10103ff 	sub	sp, sp, #0x40
      dc:	d00000c0 	adrp	x0, 1a000 <_DYNAMIC>
      e0:	a9017bfd 	stp	x29, x30, [sp, #16]
      e4:	910043fd 	add	x29, sp, #0x10
      e8:	f9409800 	ldr	x0, [x0, #304]
      ec:	a90253f3 	stp	x19, x20, [sp, #32]
      f0:	a9035bf5 	stp	x21, x22, [sp, #48]
      f4:	f9400001 	ldr	x1, [x0]
      f8:	f90007e1 	str	x1, [sp, #8]
      fc:	d2800001 	mov	x1, #0x0                   	// #0
/root/STM32CubeIDE/workspace_1.18.1/tf_secure_inference/CA35/ta_tf_speech/ta/ta_rsa_encrypt.c:35
     100:	d00000c0 	adrp	x0, 1a000 <_DYNAMIC>
     104:	9118e016 	add	x22, x0, #0x638
     108:	f9431c00 	ldr	x0, [x0, #1592]
     10c:	b5000240 	cbnz	x0, 154 <generate_rsa_keypair+0x7c>
/root/STM32CubeIDE/workspace_1.18.1/tf_secure_inference/CA35/ta_tf_speech/ta/ta_rsa_encrypt.c:39
     110:	f00000b5 	adrp	x21, 17000 <__text_end+0x39f8>
     114:	912ba2b5 	add	x21, x21, #0xae8
     118:	52800023 	mov	w3, #0x1                   	// #1
     11c:	aa1603e4 	mov	x4, x22
     120:	aa1503e1 	mov	x1, x21
     124:	2a0303e0 	mov	w0, w3
     128:	d2800162 	mov	x2, #0xb                   	// #11
     12c:	900000d4 	adrp	x20, 18000 <gcd_pairs+0x53c>
     130:	94000a25 	bl	29c4 <TEE_OpenPersistentObject>
/root/STM32CubeIDE/workspace_1.18.1/tf_secure_inference/CA35/ta_tf_speech/ta/ta_rsa_encrypt.c:43
     134:	35000220 	cbnz	w0, 178 <generate_rsa_keypair+0xa0>
/root/STM32CubeIDE/workspace_1.18.1/tf_secure_inference/CA35/ta_tf_speech/ta/ta_rsa_encrypt.c:44
     138:	f00000a4 	adrp	x4, 17000 <__text_end+0x39f8>
     13c:	912bd280 	add	x0, x20, #0xaf4
     140:	912bd084 	add	x4, x4, #0xaf4
     144:	52800023 	mov	w3, #0x1                   	// #1
     148:	52800042 	mov	w2, #0x2                   	// #2
     14c:	52800581 	mov	w1, #0x2c                  	// #44
     150:	940001c0 	bl	850 <trace_printf>
/root/STM32CubeIDE/workspace_1.18.1/tf_secure_inference/CA35/ta_tf_speech/ta/ta_rsa_encrypt.c:36
     154:	52800013 	mov	w19, #0x0                   	// #0
/root/STM32CubeIDE/workspace_1.18.1/tf_secure_inference/CA35/ta_tf_speech/ta/ta_rsa_encrypt.c:78
     158:	d00000c0 	adrp	x0, 1a000 <_DYNAMIC>
     15c:	f9409800 	ldr	x0, [x0, #304]
     160:	f94007e2 	ldr	x2, [sp, #8]
     164:	f9400001 	ldr	x1, [x0]
     168:	eb010042 	subs	x2, x2, x1
     16c:	d2800001 	mov	x1, #0x0                   	// #0
     170:	540008c0 	b.eq	288 <generate_rsa_keypair+0x1b0>  // b.none
     174:	94000117 	bl	5d0 <__stack_chk_fail>
/root/STM32CubeIDE/workspace_1.18.1/tf_secure_inference/CA35/ta_tf_speech/ta/ta_rsa_encrypt.c:48
     178:	912bd294 	add	x20, x20, #0xaf4
     17c:	f00000a4 	adrp	x4, 17000 <__text_end+0x39f8>
     180:	912c7084 	add	x4, x4, #0xb1c
     184:	aa1403e0 	mov	x0, x20
     188:	52800023 	mov	w3, #0x1                   	// #1
     18c:	52800042 	mov	w2, #0x2                   	// #2
     190:	52800601 	mov	w1, #0x30                  	// #48
     194:	940001af 	bl	850 <trace_printf>
/root/STM32CubeIDE/workspace_1.18.1/tf_secure_inference/CA35/ta_tf_speech/ta/ta_rsa_encrypt.c:50
     198:	52800600 	mov	w0, #0x30                  	// #48
     19c:	910003e2 	mov	x2, sp
     1a0:	52810001 	mov	w1, #0x800                 	// #2048
     1a4:	72b42000 	movk	w0, #0xa100, lsl #16
/root/STM32CubeIDE/workspace_1.18.1/tf_secure_inference/CA35/ta_tf_speech/ta/ta_rsa_encrypt.c:49
     1a8:	f90003ff 	str	xzr, [sp]
/root/STM32CubeIDE/workspace_1.18.1/tf_secure_inference/CA35/ta_tf_speech/ta/ta_rsa_encrypt.c:50
     1ac:	94000809 	bl	21d0 <TEE_AllocateTransientObject>
     1b0:	2a0003f3 	mov	w19, w0
/root/STM32CubeIDE/workspace_1.18.1/tf_secure_inference/CA35/ta_tf_speech/ta/ta_rsa_encrypt.c:51
     1b4:	34000140 	cbz	w0, 1dc <generate_rsa_keypair+0x104>
/root/STM32CubeIDE/workspace_1.18.1/tf_secure_inference/CA35/ta_tf_speech/ta/ta_rsa_encrypt.c:52
     1b8:	2a0003e5 	mov	w5, w0
     1bc:	f00000a4 	adrp	x4, 17000 <__text_end+0x39f8>
     1c0:	aa1403e0 	mov	x0, x20
     1c4:	912ce884 	add	x4, x4, #0xb3a
     1c8:	52800023 	mov	w3, #0x1                   	// #1
     1cc:	52800022 	mov	w2, #0x1                   	// #1
     1d0:	52800681 	mov	w1, #0x34                  	// #52
     1d4:	9400019f 	bl	850 <trace_printf>
/root/STM32CubeIDE/workspace_1.18.1/tf_secure_inference/CA35/ta_tf_speech/ta/ta_rsa_encrypt.c:53
     1d8:	17ffffe0 	b	158 <generate_rsa_keypair+0x80>
/root/STM32CubeIDE/workspace_1.18.1/tf_secure_inference/CA35/ta_tf_speech/ta/ta_rsa_encrypt.c:56
     1dc:	f94003e0 	ldr	x0, [sp]
     1e0:	52800003 	mov	w3, #0x0                   	// #0
     1e4:	d2800002 	mov	x2, #0x0                   	// #0
     1e8:	52810001 	mov	w1, #0x800                 	// #2048
     1ec:	9400098a 	bl	2814 <TEE_GenerateKey>
     1f0:	2a0003f3 	mov	w19, w0
/root/STM32CubeIDE/workspace_1.18.1/tf_secure_inference/CA35/ta_tf_speech/ta/ta_rsa_encrypt.c:57
     1f4:	34000180 	cbz	w0, 224 <generate_rsa_keypair+0x14c>
/root/STM32CubeIDE/workspace_1.18.1/tf_secure_inference/CA35/ta_tf_speech/ta/ta_rsa_encrypt.c:58
     1f8:	f00000a4 	adrp	x4, 17000 <__text_end+0x39f8>
     1fc:	2a0003e5 	mov	w5, w0
     200:	912d8c84 	add	x4, x4, #0xb63
     204:	52800023 	mov	w3, #0x1                   	// #1
     208:	52800022 	mov	w2, #0x1                   	// #1
     20c:	52800741 	mov	w1, #0x3a                  	// #58
/root/STM32CubeIDE/workspace_1.18.1/tf_secure_inference/CA35/ta_tf_speech/ta/ta_rsa_encrypt.c:71
     210:	aa1403e0 	mov	x0, x20
     214:	9400018f 	bl	850 <trace_printf>
/root/STM32CubeIDE/workspace_1.18.1/tf_secure_inference/CA35/ta_tf_speech/ta/ta_rsa_encrypt.c:72
     218:	f94003e0 	ldr	x0, [sp]
     21c:	940007f4 	bl	21ec <TEE_FreeTransientObject>
/root/STM32CubeIDE/workspace_1.18.1/tf_secure_inference/CA35/ta_tf_speech/ta/ta_rsa_encrypt.c:73
     220:	17ffffce 	b	158 <generate_rsa_keypair+0x80>
/root/STM32CubeIDE/workspace_1.18.1/tf_secure_inference/CA35/ta_tf_speech/ta/ta_rsa_encrypt.c:64
     224:	f94003e4 	ldr	x4, [sp]
     228:	aa1603e7 	mov	x7, x22
     22c:	aa1503e1 	mov	x1, x21
     230:	d2800006 	mov	x6, #0x0                   	// #0
     234:	d2800005 	mov	x5, #0x0                   	// #0
     238:	528000e3 	mov	w3, #0x7                   	// #7
     23c:	d2800162 	mov	x2, #0xb                   	// #11
     240:	52800020 	mov	w0, #0x1                   	// #1
     244:	94000a21 	bl	2ac8 <TEE_CreatePersistentObject>
     248:	2a0003f3 	mov	w19, w0
/root/STM32CubeIDE/workspace_1.18.1/tf_secure_inference/CA35/ta_tf_speech/ta/ta_rsa_encrypt.c:70
     24c:	34000100 	cbz	w0, 26c <generate_rsa_keypair+0x194>
/root/STM32CubeIDE/workspace_1.18.1/tf_secure_inference/CA35/ta_tf_speech/ta/ta_rsa_encrypt.c:71
     250:	f00000a4 	adrp	x4, 17000 <__text_end+0x39f8>
     254:	2a0003e5 	mov	w5, w0
     258:	912e0084 	add	x4, x4, #0xb80
     25c:	52800023 	mov	w3, #0x1                   	// #1
     260:	52800022 	mov	w2, #0x1                   	// #1
     264:	528008e1 	mov	w1, #0x47                  	// #71
     268:	17ffffea 	b	210 <generate_rsa_keypair+0x138>
/root/STM32CubeIDE/workspace_1.18.1/tf_secure_inference/CA35/ta_tf_speech/ta/ta_rsa_encrypt.c:76
     26c:	f00000a4 	adrp	x4, 17000 <__text_end+0x39f8>
     270:	aa1403e0 	mov	x0, x20
     274:	912ea084 	add	x4, x4, #0xba8
     278:	52800023 	mov	w3, #0x1                   	// #1
     27c:	52800042 	mov	w2, #0x2                   	// #2
     280:	52800981 	mov	w1, #0x4c                  	// #76
     284:	17ffffb3 	b	150 <generate_rsa_keypair+0x78>
/root/STM32CubeIDE/workspace_1.18.1/tf_secure_inference/CA35/ta_tf_speech/ta/ta_rsa_encrypt.c:78
     288:	a9417bfd 	ldp	x29, x30, [sp, #16]
     28c:	2a1303e0 	mov	w0, w19
     290:	a94253f3 	ldp	x19, x20, [sp, #32]
     294:	a9435bf5 	ldp	x21, x22, [sp, #48]
     298:	910103ff 	add	sp, sp, #0x40
     29c:	d65f03c0 	ret

00000000000002a0 <TA_CreateEntryPoint>:
TA_CreateEntryPoint():
/root/STM32CubeIDE/workspace_1.18.1/tf_secure_inference/CA35/ta_tf_speech/ta/ta_rsa_encrypt.c:13
     2a0:	52800000 	mov	w0, #0x0                   	// #0
     2a4:	d65f03c0 	ret

00000000000002a8 <TA_DestroyEntryPoint>:
TA_DestroyEntryPoint():
/root/STM32CubeIDE/workspace_1.18.1/tf_secure_inference/CA35/ta_tf_speech/ta/ta_rsa_encrypt.c:16
     2a8:	d00000c0 	adrp	x0, 1a000 <_DYNAMIC>
     2ac:	f9431c00 	ldr	x0, [x0, #1592]
     2b0:	b4000040 	cbz	x0, 2b8 <TA_DestroyEntryPoint+0x10>
/root/STM32CubeIDE/workspace_1.18.1/tf_secure_inference/CA35/ta_tf_speech/ta/ta_rsa_encrypt.c:17
     2b4:	1400078e 	b	20ec <TEE_CloseObject>
/root/STM32CubeIDE/workspace_1.18.1/tf_secure_inference/CA35/ta_tf_speech/ta/ta_rsa_encrypt.c:18
     2b8:	d65f03c0 	ret

00000000000002bc <TA_OpenSessionEntryPoint>:
TA_OpenSessionEntryPoint():
/root/STM32CubeIDE/workspace_1.18.1/tf_secure_inference/CA35/ta_tf_speech/ta/ta_rsa_encrypt.c:25
     2bc:	52800000 	mov	w0, #0x0                   	// #0
     2c0:	d65f03c0 	ret

00000000000002c4 <TA_CloseSessionEntryPoint>:
TA_CloseSessionEntryPoint():
/root/STM32CubeIDE/workspace_1.18.1/tf_secure_inference/CA35/ta_tf_speech/ta/ta_rsa_encrypt.c:29
     2c4:	d65f03c0 	ret

00000000000002c8 <TA_InvokeCommandEntryPoint>:
TA_InvokeCommandEntryPoint():
/root/STM32CubeIDE/workspace_1.18.1/tf_secure_inference/CA35/ta_tf_speech/ta/ta_rsa_encrypt.c:83
     2c8:	d10183ff 	sub	sp, sp, #0x60
     2cc:	d00000c0 	adrp	x0, 1a000 <_DYNAMIC>
/root/STM32CubeIDE/workspace_1.18.1/tf_secure_inference/CA35/ta_tf_speech/ta/ta_rsa_encrypt.c:86
     2d0:	2a0103e5 	mov	w5, w1
     2d4:	f00000a4 	adrp	x4, 17000 <__text_end+0x39f8>
     2d8:	912f2884 	add	x4, x4, #0xbca
/root/STM32CubeIDE/workspace_1.18.1/tf_secure_inference/CA35/ta_tf_speech/ta/ta_rsa_encrypt.c:83
     2dc:	a9027bfd 	stp	x29, x30, [sp, #32]
     2e0:	910083fd 	add	x29, sp, #0x20
     2e4:	f9409800 	ldr	x0, [x0, #304]
     2e8:	a90353f3 	stp	x19, x20, [sp, #48]
     2ec:	2a0103f4 	mov	w20, w1
     2f0:	a9045bf5 	stp	x21, x22, [sp, #64]
/root/STM32CubeIDE/workspace_1.18.1/tf_secure_inference/CA35/ta_tf_speech/ta/ta_rsa_encrypt.c:86
     2f4:	900000d5 	adrp	x21, 18000 <gcd_pairs+0x53c>
     2f8:	912bd2b5 	add	x21, x21, #0xaf4
/root/STM32CubeIDE/workspace_1.18.1/tf_secure_inference/CA35/ta_tf_speech/ta/ta_rsa_encrypt.c:83
     2fc:	f9002bf7 	str	x23, [sp, #80]
/root/STM32CubeIDE/workspace_1.18.1/tf_secure_inference/CA35/ta_tf_speech/ta/ta_rsa_encrypt.c:86
     300:	910056b5 	add	x21, x21, #0x15
/root/STM32CubeIDE/workspace_1.18.1/tf_secure_inference/CA35/ta_tf_speech/ta/ta_rsa_encrypt.c:83
     304:	2a0203f3 	mov	w19, w2
     308:	aa0303f6 	mov	x22, x3
     30c:	f9400001 	ldr	x1, [x0]
     310:	f9000fe1 	str	x1, [sp, #24]
     314:	d2800001 	mov	x1, #0x0                   	// #0
/root/STM32CubeIDE/workspace_1.18.1/tf_secure_inference/CA35/ta_tf_speech/ta/ta_rsa_encrypt.c:86
     318:	52800023 	mov	w3, #0x1                   	// #1
     31c:	aa1503e0 	mov	x0, x21
     320:	52800042 	mov	w2, #0x2                   	// #2
     324:	52800ac1 	mov	w1, #0x56                  	// #86
     328:	9400014a 	bl	850 <trace_printf>
/root/STM32CubeIDE/workspace_1.18.1/tf_secure_inference/CA35/ta_tf_speech/ta/ta_rsa_encrypt.c:88
     32c:	7100069f 	cmp	w20, #0x1
     330:	54000ce1 	b.ne	4cc <TA_InvokeCommandEntryPoint+0x204>  // b.any
/root/STM32CubeIDE/workspace_1.18.1/tf_secure_inference/CA35/ta_tf_speech/ta/ta_rsa_encrypt.c:89
     334:	f00000a4 	adrp	x4, 17000 <__text_end+0x39f8>
     338:	2a1403e3 	mov	w3, w20
     33c:	912fc884 	add	x4, x4, #0xbf2
     340:	aa1503e0 	mov	x0, x21
     344:	52800042 	mov	w2, #0x2                   	// #2
     348:	52800b21 	mov	w1, #0x59                  	// #89
     34c:	94000141 	bl	850 <trace_printf>
/root/STM32CubeIDE/workspace_1.18.1/tf_secure_inference/CA35/ta_tf_speech/ta/ta_rsa_encrypt.c:91
     350:	7101967f 	cmp	w19, #0x65
     354:	54000160 	b.eq	380 <TA_InvokeCommandEntryPoint+0xb8>  // b.none
/root/STM32CubeIDE/workspace_1.18.1/tf_secure_inference/CA35/ta_tf_speech/ta/ta_rsa_encrypt.c:96
     358:	f00000a4 	adrp	x4, 17000 <__text_end+0x39f8>
     35c:	2a1303e5 	mov	w5, w19
     360:	91302c84 	add	x4, x4, #0xc0b
     364:	2a1403e3 	mov	w3, w20
     368:	2a1403e2 	mov	w2, w20
     36c:	52800c01 	mov	w1, #0x60                  	// #96
/root/STM32CubeIDE/workspace_1.18.1/tf_secure_inference/CA35/ta_tf_speech/ta/ta_rsa_encrypt.c:144
     370:	aa1503e0 	mov	x0, x21
/root/STM32CubeIDE/workspace_1.18.1/tf_secure_inference/CA35/ta_tf_speech/ta/ta_rsa_encrypt.c:145
     374:	129fff33 	mov	w19, #0xffff0006            	// #-65530
/root/STM32CubeIDE/workspace_1.18.1/tf_secure_inference/CA35/ta_tf_speech/ta/ta_rsa_encrypt.c:144
     378:	94000136 	bl	850 <trace_printf>
/root/STM32CubeIDE/workspace_1.18.1/tf_secure_inference/CA35/ta_tf_speech/ta/ta_rsa_encrypt.c:145
     37c:	1400000c 	b	3ac <TA_InvokeCommandEntryPoint+0xe4>
/root/STM32CubeIDE/workspace_1.18.1/tf_secure_inference/CA35/ta_tf_speech/ta/ta_rsa_encrypt.c:100
     380:	97ffff56 	bl	d8 <generate_rsa_keypair>
     384:	2a0003f3 	mov	w19, w0
/root/STM32CubeIDE/workspace_1.18.1/tf_secure_inference/CA35/ta_tf_speech/ta/ta_rsa_encrypt.c:101
     388:	34000220 	cbz	w0, 3cc <TA_InvokeCommandEntryPoint+0x104>
/root/STM32CubeIDE/workspace_1.18.1/tf_secure_inference/CA35/ta_tf_speech/ta/ta_rsa_encrypt.c:102
     38c:	f00000a4 	adrp	x4, 17000 <__text_end+0x39f8>
     390:	2a0003e5 	mov	w5, w0
     394:	9130c484 	add	x4, x4, #0xc31
     398:	2a1403e3 	mov	w3, w20
     39c:	2a1403e2 	mov	w2, w20
     3a0:	52800cc1 	mov	w1, #0x66                  	// #102
/root/STM32CubeIDE/workspace_1.18.1/tf_secure_inference/CA35/ta_tf_speech/ta/ta_rsa_encrypt.c:109
     3a4:	aa1503e0 	mov	x0, x21
     3a8:	9400012a 	bl	850 <trace_printf>
/root/STM32CubeIDE/workspace_1.18.1/tf_secure_inference/CA35/ta_tf_speech/ta/ta_rsa_encrypt.c:174
     3ac:	d00000c0 	adrp	x0, 1a000 <_DYNAMIC>
     3b0:	f9409800 	ldr	x0, [x0, #304]
     3b4:	f9400fe2 	ldr	x2, [sp, #24]
     3b8:	f9400001 	ldr	x1, [x0]
     3bc:	eb010042 	subs	x2, x2, x1
     3c0:	d2800001 	mov	x1, #0x0                   	// #0
     3c4:	54000ea0 	b.eq	598 <TA_InvokeCommandEntryPoint+0x2d0>  // b.none
     3c8:	94000082 	bl	5d0 <__stack_chk_fail>
/root/STM32CubeIDE/workspace_1.18.1/tf_secure_inference/CA35/ta_tf_speech/ta/ta_rsa_encrypt.c:107
     3cc:	52802601 	mov	w1, #0x130                 	// #304
     3d0:	2a1403e2 	mov	w2, w20
     3d4:	910023e0 	add	x0, sp, #0x8
     3d8:	52810003 	mov	w3, #0x800                 	// #2048
     3dc:	72ac0001 	movk	w1, #0x6000, lsl #16
     3e0:	94000e04 	bl	3bf0 <TEE_AllocateOperation>
     3e4:	2a0003f3 	mov	w19, w0
/root/STM32CubeIDE/workspace_1.18.1/tf_secure_inference/CA35/ta_tf_speech/ta/ta_rsa_encrypt.c:108
     3e8:	34000100 	cbz	w0, 408 <TA_InvokeCommandEntryPoint+0x140>
/root/STM32CubeIDE/workspace_1.18.1/tf_secure_inference/CA35/ta_tf_speech/ta/ta_rsa_encrypt.c:109
     3ec:	f00000a4 	adrp	x4, 17000 <__text_end+0x39f8>
     3f0:	2a0003e5 	mov	w5, w0
     3f4:	91314c84 	add	x4, x4, #0xc53
     3f8:	2a1403e3 	mov	w3, w20
     3fc:	2a1403e2 	mov	w2, w20
     400:	52800da1 	mov	w1, #0x6d                  	// #109
     404:	17ffffe8 	b	3a4 <TA_InvokeCommandEntryPoint+0xdc>
/root/STM32CubeIDE/workspace_1.18.1/tf_secure_inference/CA35/ta_tf_speech/ta/ta_rsa_encrypt.c:113
     408:	d00000c0 	adrp	x0, 1a000 <_DYNAMIC>
     40c:	f9431c01 	ldr	x1, [x0, #1592]
     410:	f94007e0 	ldr	x0, [sp, #8]
     414:	9400117e 	bl	4a0c <TEE_SetOperationKey>
     418:	2a0003f3 	mov	w19, w0
/root/STM32CubeIDE/workspace_1.18.1/tf_secure_inference/CA35/ta_tf_speech/ta/ta_rsa_encrypt.c:114
     41c:	34000180 	cbz	w0, 44c <TA_InvokeCommandEntryPoint+0x184>
/root/STM32CubeIDE/workspace_1.18.1/tf_secure_inference/CA35/ta_tf_speech/ta/ta_rsa_encrypt.c:115
     420:	2a0003e5 	mov	w5, w0
     424:	f00000a4 	adrp	x4, 17000 <__text_end+0x39f8>
     428:	2a1403e3 	mov	w3, w20
     42c:	9131d884 	add	x4, x4, #0xc76
     430:	2a1403e2 	mov	w2, w20
     434:	aa1503e0 	mov	x0, x21
     438:	52800e61 	mov	w1, #0x73                  	// #115
     43c:	94000105 	bl	850 <trace_printf>
/root/STM32CubeIDE/workspace_1.18.1/tf_secure_inference/CA35/ta_tf_speech/ta/ta_rsa_encrypt.c:172
     440:	f94007e0 	ldr	x0, [sp, #8]
     444:	94000ddb 	bl	3bb0 <TEE_FreeOperation>
/root/STM32CubeIDE/workspace_1.18.1/tf_secure_inference/CA35/ta_tf_speech/ta/ta_rsa_encrypt.c:173
     448:	17ffffd9 	b	3ac <TA_InvokeCommandEntryPoint+0xe4>
/root/STM32CubeIDE/workspace_1.18.1/tf_secure_inference/CA35/ta_tf_speech/ta/ta_rsa_encrypt.c:121
     44c:	a94012c3 	ldp	x3, x4, [x22]
/root/STM32CubeIDE/workspace_1.18.1/tf_secure_inference/CA35/ta_tf_speech/ta/ta_rsa_encrypt.c:120
     450:	910042d7 	add	x23, x22, #0x10
     454:	f94006e0 	ldr	x0, [x23, #8]
     458:	f9000be0 	str	x0, [sp, #16]
/root/STM32CubeIDE/workspace_1.18.1/tf_secure_inference/CA35/ta_tf_speech/ta/ta_rsa_encrypt.c:121
     45c:	f94007e0 	ldr	x0, [sp, #8]
     460:	910043e6 	add	x6, sp, #0x10
     464:	f9400ac5 	ldr	x5, [x22, #16]
     468:	52800002 	mov	w2, #0x0                   	// #0
     46c:	d2800001 	mov	x1, #0x0                   	// #0
     470:	940018f4 	bl	6840 <TEE_AsymmetricDecrypt>
     474:	2a0003f3 	mov	w19, w0
/root/STM32CubeIDE/workspace_1.18.1/tf_secure_inference/CA35/ta_tf_speech/ta/ta_rsa_encrypt.c:124
     478:	34000180 	cbz	w0, 4a8 <TA_InvokeCommandEntryPoint+0x1e0>
/root/STM32CubeIDE/workspace_1.18.1/tf_secure_inference/CA35/ta_tf_speech/ta/ta_rsa_encrypt.c:125
     47c:	2a0003e5 	mov	w5, w0
     480:	f00000a4 	adrp	x4, 17000 <__text_end+0x39f8>
     484:	2a1403e3 	mov	w3, w20
     488:	91325c84 	add	x4, x4, #0xc97
     48c:	2a1403e2 	mov	w2, w20
     490:	aa1503e0 	mov	x0, x21
     494:	52800fa1 	mov	w1, #0x7d                  	// #125
     498:	940000ee 	bl	850 <trace_printf>
/root/STM32CubeIDE/workspace_1.18.1/tf_secure_inference/CA35/ta_tf_speech/ta/ta_rsa_encrypt.c:130
     49c:	f9400be0 	ldr	x0, [sp, #16]
     4a0:	f90006e0 	str	x0, [x23, #8]
/root/STM32CubeIDE/workspace_1.18.1/tf_secure_inference/CA35/ta_tf_speech/ta/ta_rsa_encrypt.c:131
     4a4:	17ffffe7 	b	440 <TA_InvokeCommandEntryPoint+0x178>
/root/STM32CubeIDE/workspace_1.18.1/tf_secure_inference/CA35/ta_tf_speech/ta/ta_rsa_encrypt.c:127
     4a8:	f9400be5 	ldr	x5, [sp, #16]
     4ac:	2a1403e3 	mov	w3, w20
     4b0:	aa1503e0 	mov	x0, x21
     4b4:	f00000a4 	adrp	x4, 17000 <__text_end+0x39f8>
     4b8:	52800042 	mov	w2, #0x2                   	// #2
     4bc:	9132e884 	add	x4, x4, #0xcba
     4c0:	52800fe1 	mov	w1, #0x7f                  	// #127
     4c4:	940000e3 	bl	850 <trace_printf>
     4c8:	17fffff5 	b	49c <TA_InvokeCommandEntryPoint+0x1d4>
/root/STM32CubeIDE/workspace_1.18.1/tf_secure_inference/CA35/ta_tf_speech/ta/ta_rsa_encrypt.c:135
     4cc:	34000174 	cbz	w20, 4f8 <TA_InvokeCommandEntryPoint+0x230>
/root/STM32CubeIDE/workspace_1.18.1/tf_secure_inference/CA35/ta_tf_speech/ta/ta_rsa_encrypt.c:136
     4d0:	2a1403e5 	mov	w5, w20
     4d4:	aa1503e0 	mov	x0, x21
     4d8:	f00000a4 	adrp	x4, 17000 <__text_end+0x39f8>
     4dc:	52800023 	mov	w3, #0x1                   	// #1
     4e0:	91338884 	add	x4, x4, #0xce2
     4e4:	52800022 	mov	w2, #0x1                   	// #1
     4e8:	52801101 	mov	w1, #0x88                  	// #136
/root/STM32CubeIDE/workspace_1.18.1/tf_secure_inference/CA35/ta_tf_speech/ta/ta_rsa_encrypt.c:137
     4ec:	129ffeb3 	mov	w19, #0xffff000a            	// #-65526
/root/STM32CubeIDE/workspace_1.18.1/tf_secure_inference/CA35/ta_tf_speech/ta/ta_rsa_encrypt.c:136
     4f0:	940000d8 	bl	850 <trace_printf>
/root/STM32CubeIDE/workspace_1.18.1/tf_secure_inference/CA35/ta_tf_speech/ta/ta_rsa_encrypt.c:137
     4f4:	17ffffae 	b	3ac <TA_InvokeCommandEntryPoint+0xe4>
/root/STM32CubeIDE/workspace_1.18.1/tf_secure_inference/CA35/ta_tf_speech/ta/ta_rsa_encrypt.c:140
     4f8:	7101967f 	cmp	w19, #0x65
     4fc:	54000100 	b.eq	51c <TA_InvokeCommandEntryPoint+0x254>  // b.none
/root/STM32CubeIDE/workspace_1.18.1/tf_secure_inference/CA35/ta_tf_speech/ta/ta_rsa_encrypt.c:144
     500:	f00000a4 	adrp	x4, 17000 <__text_end+0x39f8>
     504:	2a1303e5 	mov	w5, w19
     508:	9133f484 	add	x4, x4, #0xcfd
     50c:	52800023 	mov	w3, #0x1                   	// #1
     510:	52800022 	mov	w2, #0x1                   	// #1
     514:	52801201 	mov	w1, #0x90                  	// #144
     518:	17ffff96 	b	370 <TA_InvokeCommandEntryPoint+0xa8>
/root/STM32CubeIDE/workspace_1.18.1/tf_secure_inference/CA35/ta_tf_speech/ta/ta_rsa_encrypt.c:148
     51c:	97fffeef 	bl	d8 <generate_rsa_keypair>
     520:	2a0003f3 	mov	w19, w0
/root/STM32CubeIDE/workspace_1.18.1/tf_secure_inference/CA35/ta_tf_speech/ta/ta_rsa_encrypt.c:149
     524:	35fff440 	cbnz	w0, 3ac <TA_InvokeCommandEntryPoint+0xe4>
/root/STM32CubeIDE/workspace_1.18.1/tf_secure_inference/CA35/ta_tf_speech/ta/ta_rsa_encrypt.c:154
     528:	52802601 	mov	w1, #0x130                 	// #304
     52c:	910023e0 	add	x0, sp, #0x8
     530:	52810003 	mov	w3, #0x800                 	// #2048
     534:	52800002 	mov	w2, #0x0                   	// #0
     538:	72ac0001 	movk	w1, #0x6000, lsl #16
     53c:	94000dad 	bl	3bf0 <TEE_AllocateOperation>
     540:	2a0003f3 	mov	w19, w0
/root/STM32CubeIDE/workspace_1.18.1/tf_secure_inference/CA35/ta_tf_speech/ta/ta_rsa_encrypt.c:155
     544:	35fff340 	cbnz	w0, 3ac <TA_InvokeCommandEntryPoint+0xe4>
/root/STM32CubeIDE/workspace_1.18.1/tf_secure_inference/CA35/ta_tf_speech/ta/ta_rsa_encrypt.c:159
     548:	d00000c0 	adrp	x0, 1a000 <_DYNAMIC>
     54c:	f9431c01 	ldr	x1, [x0, #1592]
     550:	f94007e0 	ldr	x0, [sp, #8]
     554:	9400112e 	bl	4a0c <TEE_SetOperationKey>
     558:	2a0003f3 	mov	w19, w0
/root/STM32CubeIDE/workspace_1.18.1/tf_secure_inference/CA35/ta_tf_speech/ta/ta_rsa_encrypt.c:160
     55c:	35fff720 	cbnz	w0, 440 <TA_InvokeCommandEntryPoint+0x178>
/root/STM32CubeIDE/workspace_1.18.1/tf_secure_inference/CA35/ta_tf_speech/ta/ta_rsa_encrypt.c:166
     560:	a94012c3 	ldp	x3, x4, [x22]
     564:	910043e6 	add	x6, sp, #0x10
/root/STM32CubeIDE/workspace_1.18.1/tf_secure_inference/CA35/ta_tf_speech/ta/ta_rsa_encrypt.c:165
     568:	f9400ec0 	ldr	x0, [x22, #24]
     56c:	f9000be0 	str	x0, [sp, #16]
/root/STM32CubeIDE/workspace_1.18.1/tf_secure_inference/CA35/ta_tf_speech/ta/ta_rsa_encrypt.c:166
     570:	f94007e0 	ldr	x0, [sp, #8]
     574:	52800002 	mov	w2, #0x0                   	// #0
     578:	f9400ac5 	ldr	x5, [x22, #16]
     57c:	d2800001 	mov	x1, #0x0                   	// #0
/root/STM32CubeIDE/workspace_1.18.1/tf_secure_inference/CA35/ta_tf_speech/ta/ta_rsa_encrypt.c:165
     580:	910042d4 	add	x20, x22, #0x10
/root/STM32CubeIDE/workspace_1.18.1/tf_secure_inference/CA35/ta_tf_speech/ta/ta_rsa_encrypt.c:166
     584:	940017ed 	bl	6538 <TEE_AsymmetricEncrypt>
     588:	2a0003f3 	mov	w19, w0
/root/STM32CubeIDE/workspace_1.18.1/tf_secure_inference/CA35/ta_tf_speech/ta/ta_rsa_encrypt.c:171
     58c:	f9400be0 	ldr	x0, [sp, #16]
     590:	f9000680 	str	x0, [x20, #8]
     594:	17ffffab 	b	440 <TA_InvokeCommandEntryPoint+0x178>
/root/STM32CubeIDE/workspace_1.18.1/tf_secure_inference/CA35/ta_tf_speech/ta/ta_rsa_encrypt.c:174
     598:	a9427bfd 	ldp	x29, x30, [sp, #32]
     59c:	2a1303e0 	mov	w0, w19
     5a0:	a94353f3 	ldp	x19, x20, [sp, #48]
     5a4:	a9445bf5 	ldp	x21, x22, [sp, #64]
     5a8:	f9402bf7 	ldr	x23, [sp, #80]
     5ac:	910183ff 	add	sp, sp, #0x60
     5b0:	d65f03c0 	ret

00000000000005b4 <__ta_entry>:
__ta_entry():
/opt/st/stm32mp2/5.0.3-openstlinux-6.6-yocto-scarthgap-mpu-v24.11.06/sysroots/cortexa35-ostl-linux/usr/include/optee/export-user_ta_arm64/src/user_ta_header.c:51
     5b4:	a9bf7bfd 	stp	x29, x30, [sp, #-16]!
     5b8:	910003fd 	mov	x29, sp
/opt/st/stm32mp2/5.0.3-openstlinux-6.6-yocto-scarthgap-mpu-v24.11.06/sysroots/cortexa35-ostl-linux/usr/include/optee/export-user_ta_arm64/src/user_ta_header.c:70
     5bc:	94001e5c 	bl	7f2c <__utee_entry>
/opt/st/stm32mp2/5.0.3-openstlinux-6.6-yocto-scarthgap-mpu-v24.11.06/sysroots/cortexa35-ostl-linux/usr/include/optee/export-user_ta_arm64/src/user_ta_header.c:81
     5c0:	2a0003e0 	mov	w0, w0
     5c4:	94001f01 	bl	81c8 <_utee_return>

00000000000005c8 <tahead_get_trace_level>:
tahead_get_trace_level():
/opt/st/stm32mp2/5.0.3-openstlinux-6.6-yocto-scarthgap-mpu-v24.11.06/sysroots/cortexa35-ostl-linux/usr/include/optee/export-user_ta_arm64/src/user_ta_header.c:193
     5c8:	52800080 	mov	w0, #0x4                   	// #4
     5cc:	d65f03c0 	ret

00000000000005d0 <__stack_chk_fail>:
__stack_chk_fail():
/usr/src/debug/optee-os-stm32mp/4.0.0-stm32mp-r1/lib/libutils/isoc/stack_check.c:24
     5d0:	a9bf7bfd 	stp	x29, x30, [sp, #-16]!
/usr/src/debug/optee-os-stm32mp/4.0.0-stm32mp-r1/lib/libutils/isoc/stack_check.c:25
     5d4:	f00000a4 	adrp	x4, 17000 <__text_end+0x39f8>
     5d8:	52800023 	mov	w3, #0x1                   	// #1
/usr/src/debug/optee-os-stm32mp/4.0.0-stm32mp-r1/lib/libutils/isoc/stack_check.c:24
     5dc:	910003fd 	mov	x29, sp
/usr/src/debug/optee-os-stm32mp/4.0.0-stm32mp-r1/lib/libutils/isoc/stack_check.c:25
     5e0:	91381c84 	add	x4, x4, #0xe07
     5e4:	52800022 	mov	w2, #0x1                   	// #1
     5e8:	52800001 	mov	w1, #0x0                   	// #0
     5ec:	d2800000 	mov	x0, #0x0                   	// #0
     5f0:	94000098 	bl	850 <trace_printf>
/usr/src/debug/optee-os-stm32mp/4.0.0-stm32mp-r1/lib/libutils/isoc/stack_check.c:27 (discriminator 1)
     5f4:	1299fe00 	mov	w0, #0xffff300f            	// #-53233
     5f8:	94001ef1 	bl	81bc <_utee_panic>
/usr/src/debug/optee-os-stm32mp/4.0.0-stm32mp-r1/lib/libutils/isoc/stack_check.c:26
     5fc:	17fffffe 	b	5f4 <__stack_chk_fail+0x24>

0000000000000600 <trace_set_level>:
trace_set_level():
/usr/src/debug/optee-os-stm32mp/4.0.0-stm32mp-r1/lib/libutils/ext/trace.c:28
     600:	7100141f 	cmp	w0, #0x5
     604:	52800081 	mov	w1, #0x4                   	// #4
     608:	1a813000 	csel	w0, w0, w1, cc	// cc = lo, ul, last
     60c:	d00000c1 	adrp	x1, 1a000 <_DYNAMIC>
     610:	f940a821 	ldr	x1, [x1, #336]
     614:	b9000020 	str	w0, [x1]
/usr/src/debug/optee-os-stm32mp/4.0.0-stm32mp-r1/lib/libutils/ext/trace.c:29
     618:	d65f03c0 	ret

000000000000061c <trace_get_level>:
trace_get_level():
/usr/src/debug/optee-os-stm32mp/4.0.0-stm32mp-r1/lib/libutils/ext/trace.c:33
     61c:	d00000c0 	adrp	x0, 1a000 <_DYNAMIC>
/usr/src/debug/optee-os-stm32mp/4.0.0-stm32mp-r1/lib/libutils/ext/trace.c:34
     620:	f940a800 	ldr	x0, [x0, #336]
     624:	b9400000 	ldr	w0, [x0]
     628:	d65f03c0 	ret

000000000000062c <trace_vprintf>:
trace_vprintf():
/usr/src/debug/optee-os-stm32mp/4.0.0-stm32mp-r1/lib/libutils/ext/trace.c:113
     62c:	d10643ff 	sub	sp, sp, #0x190
     630:	a9137bfd 	stp	x29, x30, [sp, #304]
     634:	9104c3fd 	add	x29, sp, #0x130
     638:	a9176bf9 	stp	x25, x26, [sp, #368]
     63c:	2a0103f9 	mov	w25, w1
     640:	d00000c1 	adrp	x1, 1a000 <_DYNAMIC>
     644:	a9155bf5 	stp	x21, x22, [sp, #336]
     648:	aa0003f6 	mov	x22, x0
     64c:	aa0103f5 	mov	x21, x1
     650:	f9409820 	ldr	x0, [x1, #304]
     654:	a91453f3 	stp	x19, x20, [sp, #320]
     658:	2a0203f3 	mov	w19, w2
     65c:	a91663f7 	stp	x23, x24, [sp, #352]
     660:	aa0403f7 	mov	x23, x4
     664:	aa0503f8 	mov	x24, x5
     668:	a91873fb 	stp	x27, x28, [sp, #384]
/usr/src/debug/optee-os-stm32mp/4.0.0-stm32mp-r1/lib/libutils/ext/trace.c:118
     66c:	1200007b 	and	w27, w3, #0x1
/usr/src/debug/optee-os-stm32mp/4.0.0-stm32mp-r1/lib/libutils/ext/trace.c:113
     670:	f9400002 	ldr	x2, [x0]
     674:	f90097e2 	str	x2, [sp, #296]
     678:	d2800002 	mov	x2, #0x0                   	// #0
/usr/src/debug/optee-os-stm32mp/4.0.0-stm32mp-r1/lib/libutils/ext/trace.c:118
     67c:	36000b23 	tbz	w3, #0, 7e0 <trace_vprintf+0x1b4>
/usr/src/debug/optee-os-stm32mp/4.0.0-stm32mp-r1/lib/libutils/ext/trace.c:118 (discriminator 1)
     680:	f940a820 	ldr	x0, [x1, #336]
     684:	b9400000 	ldr	w0, [x0]
     688:	6b13001f 	cmp	w0, w19
     68c:	540009cb 	b.lt	7c4 <trace_vprintf+0x198>  // b.tstop
trace_level_to_string():
/usr/src/debug/optee-os-stm32mp/4.0.0-stm32mp-r1/lib/libutils/ext/trace.c:46
     690:	7100167f 	cmp	w19, #0x5
/usr/src/debug/optee-os-stm32mp/4.0.0-stm32mp-r1/lib/libutils/ext/trace.c:54
     694:	900000c0 	adrp	x0, 18000 <gcd_pairs+0x53c>
/usr/src/debug/optee-os-stm32mp/4.0.0-stm32mp-r1/lib/libutils/ext/trace.c:46
     698:	1a9f3261 	csel	w1, w19, wzr, cc	// cc = lo, ul, last
/usr/src/debug/optee-os-stm32mp/4.0.0-stm32mp-r1/lib/libutils/ext/trace.c:54
     69c:	912c9000 	add	x0, x0, #0xb24
     6a0:	3861c803 	ldrb	w3, [x0, w1, sxtw]
trace_vprintf():
/usr/src/debug/optee-os-stm32mp/4.0.0-stm32mp-r1/lib/libutils/ext/trace.c:122
     6a4:	9100a3f4 	add	x20, sp, #0x28
     6a8:	f00000a2 	adrp	x2, 17000 <__text_end+0x39f8>
     6ac:	aa1403e0 	mov	x0, x20
     6b0:	91387c42 	add	x2, x2, #0xe1f
     6b4:	d2802001 	mov	x1, #0x100                 	// #256
     6b8:	940000eb 	bl	a64 <snprintk>
/usr/src/debug/optee-os-stm32mp/4.0.0-stm32mp-r1/lib/libutils/ext/trace.c:124
     6bc:	37f80840 	tbnz	w0, #31, 7c4 <trace_vprintf+0x198>
/usr/src/debug/optee-os-stm32mp/4.0.0-stm32mp-r1/lib/libutils/ext/trace.c:129
     6c0:	f940b2a3 	ldr	x3, [x21, #352]
     6c4:	d280201c 	mov	x28, #0x100                 	// #256
/usr/src/debug/optee-os-stm32mp/4.0.0-stm32mp-r1/lib/libutils/ext/trace.c:126
     6c8:	93407c1a 	sxtw	x26, w0
/usr/src/debug/optee-os-stm32mp/4.0.0-stm32mp-r1/lib/libutils/ext/trace.c:129
     6cc:	cb20c381 	sub	x1, x28, w0, sxtw
     6d0:	f00000a2 	adrp	x2, 17000 <__text_end+0x39f8>
     6d4:	8b20c280 	add	x0, x20, w0, sxtw
     6d8:	91388c42 	add	x2, x2, #0xe23
     6dc:	940000e2 	bl	a64 <snprintk>
/usr/src/debug/optee-os-stm32mp/4.0.0-stm32mp-r1/lib/libutils/ext/trace.c:131
     6e0:	37f80720 	tbnz	w0, #31, 7c4 <trace_vprintf+0x198>
/usr/src/debug/optee-os-stm32mp/4.0.0-stm32mp-r1/lib/libutils/ext/trace.c:133
     6e4:	8b20c35a 	add	x26, x26, w0, sxtw
/usr/src/debug/optee-os-stm32mp/4.0.0-stm32mp-r1/lib/libutils/ext/trace.c:135
     6e8:	3400093b 	cbz	w27, 80c <trace_vprintf+0x1e0>
/usr/src/debug/optee-os-stm32mp/4.0.0-stm32mp-r1/lib/libutils/ext/trace.c:135 (discriminator 1)
     6ec:	52800340 	mov	w0, #0x1a                  	// #26
     6f0:	1ad32400 	lsr	w0, w0, w19
     6f4:	360008c0 	tbz	w0, #0, 80c <trace_vprintf+0x1e0>
print_thread_id():
/usr/src/debug/optee-os-stm32mp/4.0.0-stm32mp-r1/lib/libutils/ext/trace.c:66
     6f8:	9400042d 	bl	17ac <trace_ext_get_thread_id>
trace_vprintf():
/usr/src/debug/optee-os-stm32mp/4.0.0-stm32mp-r1/lib/libutils/ext/trace.c:143
     6fc:	8b1a029b 	add	x27, x20, x26
     700:	cb1a039c 	sub	x28, x28, x26
print_thread_id():
/usr/src/debug/optee-os-stm32mp/4.0.0-stm32mp-r1/lib/libutils/ext/trace.c:66
     704:	2a0003e4 	mov	w4, w0
/usr/src/debug/optee-os-stm32mp/4.0.0-stm32mp-r1/lib/libutils/ext/trace.c:68
     708:	37f80700 	tbnz	w0, #31, 7e8 <trace_vprintf+0x1bc>
/usr/src/debug/optee-os-stm32mp/4.0.0-stm32mp-r1/lib/libutils/ext/trace.c:69
     70c:	f00000a2 	adrp	x2, 17000 <__text_end+0x39f8>
     710:	aa1c03e1 	mov	x1, x28
     714:	91389c42 	add	x2, x2, #0xe27
     718:	aa1b03e0 	mov	x0, x27
     71c:	52800023 	mov	w3, #0x1                   	// #1
     720:	940000d1 	bl	a64 <snprintk>
trace_vprintf():
/usr/src/debug/optee-os-stm32mp/4.0.0-stm32mp-r1/lib/libutils/ext/trace.c:144
     724:	37f80500 	tbnz	w0, #31, 7c4 <trace_vprintf+0x198>
/usr/src/debug/optee-os-stm32mp/4.0.0-stm32mp-r1/lib/libutils/ext/trace.c:146
     728:	8b20c353 	add	x19, x26, w0, sxtw
/usr/src/debug/optee-os-stm32mp/4.0.0-stm32mp-r1/lib/libutils/ext/trace.c:148
     72c:	b4000176 	cbz	x22, 758 <trace_vprintf+0x12c>
/usr/src/debug/optee-os-stm32mp/4.0.0-stm32mp-r1/lib/libutils/ext/trace.c:149
     730:	f00000a2 	adrp	x2, 17000 <__text_end+0x39f8>
     734:	d2802001 	mov	x1, #0x100                 	// #256
     738:	2a1903e4 	mov	w4, w25
     73c:	aa1603e3 	mov	x3, x22
     740:	9138c842 	add	x2, x2, #0xe32
     744:	cb130021 	sub	x1, x1, x19
     748:	8b130280 	add	x0, x20, x19
     74c:	940000c6 	bl	a64 <snprintk>
/usr/src/debug/optee-os-stm32mp/4.0.0-stm32mp-r1/lib/libutils/ext/trace.c:151
     750:	37f803a0 	tbnz	w0, #31, 7c4 <trace_vprintf+0x198>
/usr/src/debug/optee-os-stm32mp/4.0.0-stm32mp-r1/lib/libutils/ext/trace.c:153
     754:	8b20c273 	add	x19, x19, w0, sxtw
/usr/src/debug/optee-os-stm32mp/4.0.0-stm32mp-r1/lib/libutils/ext/trace.c:163
     758:	910003e3 	mov	x3, sp
     75c:	aa1803e1 	mov	x1, x24
     760:	aa0303e0 	mov	x0, x3
     764:	d2800402 	mov	x2, #0x20                  	// #32
     768:	97fffe26 	bl	0 <memcpy>
     76c:	aa0003e3 	mov	x3, x0
     770:	d2802001 	mov	x1, #0x100                 	// #256
     774:	aa1703e2 	mov	x2, x23
     778:	cb130021 	sub	x1, x1, x19
     77c:	8b130280 	add	x0, x20, x19
     780:	940000a3 	bl	a0c <vsnprintk>
/usr/src/debug/optee-os-stm32mp/4.0.0-stm32mp-r1/lib/libutils/ext/trace.c:164
     784:	7100001f 	cmp	w0, #0x0
     788:	5400004d 	b.le	790 <trace_vprintf+0x164>
/usr/src/debug/optee-os-stm32mp/4.0.0-stm32mp-r1/lib/libutils/ext/trace.c:165
     78c:	8b20c273 	add	x19, x19, w0, sxtw
/usr/src/debug/optee-os-stm32mp/4.0.0-stm32mp-r1/lib/libutils/ext/trace.c:167
     790:	f103fa7f 	cmp	x19, #0xfe
     794:	d2801fc0 	mov	x0, #0xfe                  	// #254
     798:	9a809273 	csel	x19, x19, x0, ls	// ls = plast
/usr/src/debug/optee-os-stm32mp/4.0.0-stm32mp-r1/lib/libutils/ext/trace.c:170
     79c:	52800140 	mov	w0, #0xa                   	// #10
     7a0:	38336a80 	strb	w0, [x20, x19]
/usr/src/debug/optee-os-stm32mp/4.0.0-stm32mp-r1/lib/libutils/ext/trace.c:171
     7a4:	b4000093 	cbz	x19, 7b4 <trace_vprintf+0x188>
/usr/src/debug/optee-os-stm32mp/4.0.0-stm32mp-r1/lib/libutils/ext/trace.c:171 (discriminator 1)
     7a8:	38736a80 	ldrb	w0, [x20, x19]
     7ac:	7100281f 	cmp	w0, #0xa
     7b0:	540003c0 	b.eq	828 <trace_vprintf+0x1fc>  // b.none
/usr/src/debug/optee-os-stm32mp/4.0.0-stm32mp-r1/lib/libutils/ext/trace.c:174
     7b4:	9100abe0 	add	x0, sp, #0x2a
     7b8:	3833681f 	strb	wzr, [x0, x19]
/usr/src/debug/optee-os-stm32mp/4.0.0-stm32mp-r1/lib/libutils/ext/trace.c:176
     7bc:	aa1403e0 	mov	x0, x20
     7c0:	940003f1 	bl	1784 <trace_ext_puts>
/usr/src/debug/optee-os-stm32mp/4.0.0-stm32mp-r1/lib/libutils/ext/trace.c:177
     7c4:	f9409ab5 	ldr	x21, [x21, #304]
     7c8:	f94097e0 	ldr	x0, [sp, #296]
     7cc:	f94002a1 	ldr	x1, [x21]
     7d0:	eb010000 	subs	x0, x0, x1
     7d4:	d2800001 	mov	x1, #0x0                   	// #0
     7d8:	540002c0 	b.eq	830 <trace_vprintf+0x204>  // b.none
     7dc:	97ffff7d 	bl	5d0 <__stack_chk_fail>
trace_level_to_string():
/usr/src/debug/optee-os-stm32mp/4.0.0-stm32mp-r1/lib/libutils/ext/trace.c:49
     7e0:	528009a3 	mov	w3, #0x4d                  	// #77
     7e4:	17ffffb0 	b	6a4 <trace_vprintf+0x78>
print_thread_id():
/usr/src/debug/optee-os-stm32mp/4.0.0-stm32mp-r1/lib/libutils/ext/trace.c:71
     7e8:	aa1c03e1 	mov	x1, x28
     7ec:	aa1b03e0 	mov	x0, x27
     7f0:	900000c4 	adrp	x4, 18000 <gcd_pairs+0x53c>
     7f4:	52800023 	mov	w3, #0x1                   	// #1
     7f8:	9118b884 	add	x4, x4, #0x62e
     7fc:	f00000a2 	adrp	x2, 17000 <__text_end+0x39f8>
     800:	9138b442 	add	x2, x2, #0xe2d
     804:	94000098 	bl	a64 <snprintk>
     808:	17ffffc7 	b	724 <trace_vprintf+0xf8>
trace_vprintf():
/usr/src/debug/optee-os-stm32mp/4.0.0-stm32mp-r1/lib/libutils/ext/trace.c:157
     80c:	f103fb5f 	cmp	x26, #0xfe
     810:	54fffda8 	b.hi	7c4 <trace_vprintf+0x198>  // b.pmore
/usr/src/debug/optee-os-stm32mp/4.0.0-stm32mp-r1/lib/libutils/ext/trace.c:159
     814:	91000753 	add	x19, x26, #0x1
     818:	52800400 	mov	w0, #0x20                  	// #32
     81c:	383a6a80 	strb	w0, [x20, x26]
/usr/src/debug/optee-os-stm32mp/4.0.0-stm32mp-r1/lib/libutils/ext/trace.c:160
     820:	38336a9f 	strb	wzr, [x20, x19]
     824:	17ffffcd 	b	758 <trace_vprintf+0x12c>
/usr/src/debug/optee-os-stm32mp/4.0.0-stm32mp-r1/lib/libutils/ext/trace.c:172
     828:	d1000673 	sub	x19, x19, #0x1
     82c:	17ffffde 	b	7a4 <trace_vprintf+0x178>
/usr/src/debug/optee-os-stm32mp/4.0.0-stm32mp-r1/lib/libutils/ext/trace.c:177
     830:	a9537bfd 	ldp	x29, x30, [sp, #304]
     834:	a95453f3 	ldp	x19, x20, [sp, #320]
     838:	a9555bf5 	ldp	x21, x22, [sp, #336]
     83c:	a95663f7 	ldp	x23, x24, [sp, #352]
     840:	a9576bf9 	ldp	x25, x26, [sp, #368]
     844:	a95873fb 	ldp	x27, x28, [sp, #384]
     848:	910643ff 	add	sp, sp, #0x190
     84c:	d65f03c0 	ret

0000000000000850 <trace_printf>:
trace_printf():
/usr/src/debug/optee-os-stm32mp/4.0.0-stm32mp-r1/lib/libutils/ext/trace.c:104
     850:	d104c3ff 	sub	sp, sp, #0x130
     854:	a9057bfd 	stp	x29, x30, [sp, #80]
     858:	910143fd 	add	x29, sp, #0x50
     85c:	a90653f3 	stp	x19, x20, [sp, #96]
     860:	d00000d3 	adrp	x19, 1a000 <_DYNAMIC>
     864:	aa0003f4 	mov	x20, x0
     868:	f9409a60 	ldr	x0, [x19, #304]
     86c:	a9075bf5 	stp	x21, x22, [sp, #112]
     870:	2a0103f5 	mov	w21, w1
     874:	a90863f7 	stp	x23, x24, [sp, #128]
     878:	2a0203f6 	mov	w22, w2
     87c:	12001c78 	and	w24, w3, #0xff
     880:	3d8027e0 	str	q0, [sp, #144]
     884:	aa0403f7 	mov	x23, x4
/usr/src/debug/optee-os-stm32mp/4.0.0-stm32mp-r1/lib/libutils/ext/trace.c:108
     888:	d2800402 	mov	x2, #0x20                  	// #32
/usr/src/debug/optee-os-stm32mp/4.0.0-stm32mp-r1/lib/libutils/ext/trace.c:104
     88c:	3d802be1 	str	q1, [sp, #160]
     890:	3d802fe2 	str	q2, [sp, #176]
     894:	3d8033e3 	str	q3, [sp, #192]
     898:	3d8037e4 	str	q4, [sp, #208]
     89c:	3d803be5 	str	q5, [sp, #224]
     8a0:	3d803fe6 	str	q6, [sp, #240]
     8a4:	3d8043e7 	str	q7, [sp, #256]
     8a8:	a9119be5 	stp	x5, x6, [sp, #280]
/usr/src/debug/optee-os-stm32mp/4.0.0-stm32mp-r1/lib/libutils/ext/trace.c:108
     8ac:	910003e5 	mov	x5, sp
/usr/src/debug/optee-os-stm32mp/4.0.0-stm32mp-r1/lib/libutils/ext/trace.c:104
     8b0:	f90097e7 	str	x7, [sp, #296]
     8b4:	f9400001 	ldr	x1, [x0]
     8b8:	f90027e1 	str	x1, [sp, #72]
     8bc:	d2800001 	mov	x1, #0x0                   	// #0
/usr/src/debug/optee-os-stm32mp/4.0.0-stm32mp-r1/lib/libutils/ext/trace.c:107
     8c0:	9104c3e0 	add	x0, sp, #0x130
     8c4:	a90283e0 	stp	x0, x0, [sp, #40]
     8c8:	910443e0 	add	x0, sp, #0x110
/usr/src/debug/optee-os-stm32mp/4.0.0-stm32mp-r1/lib/libutils/ext/trace.c:108
     8cc:	9100a3e1 	add	x1, sp, #0x28
/usr/src/debug/optee-os-stm32mp/4.0.0-stm32mp-r1/lib/libutils/ext/trace.c:107
     8d0:	f9001fe0 	str	x0, [sp, #56]
     8d4:	128002e0 	mov	w0, #0xffffffe8            	// #-24
     8d8:	b90043e0 	str	w0, [sp, #64]
     8dc:	12800fe0 	mov	w0, #0xffffff80            	// #-128
     8e0:	b90047e0 	str	w0, [sp, #68]
/usr/src/debug/optee-os-stm32mp/4.0.0-stm32mp-r1/lib/libutils/ext/trace.c:108
     8e4:	aa0503e0 	mov	x0, x5
     8e8:	97fffdc6 	bl	0 <memcpy>
     8ec:	aa0003e5 	mov	x5, x0
     8f0:	2a1503e1 	mov	w1, w21
     8f4:	aa1403e0 	mov	x0, x20
     8f8:	aa1703e4 	mov	x4, x23
     8fc:	2a1803e3 	mov	w3, w24
     900:	2a1603e2 	mov	w2, w22
     904:	97ffff4a 	bl	62c <trace_vprintf>
/usr/src/debug/optee-os-stm32mp/4.0.0-stm32mp-r1/lib/libutils/ext/trace.c:110
     908:	f9409a73 	ldr	x19, [x19, #304]
     90c:	f94027e0 	ldr	x0, [sp, #72]
     910:	f9400261 	ldr	x1, [x19]
     914:	eb010000 	subs	x0, x0, x1
     918:	d2800001 	mov	x1, #0x0                   	// #0
     91c:	54000040 	b.eq	924 <trace_printf+0xd4>  // b.none
     920:	97ffff2c 	bl	5d0 <__stack_chk_fail>
     924:	a9457bfd 	ldp	x29, x30, [sp, #80]
     928:	a94653f3 	ldp	x19, x20, [sp, #96]
     92c:	a9475bf5 	ldp	x21, x22, [sp, #112]
     930:	a94863f7 	ldp	x23, x24, [sp, #128]
     934:	9104c3ff 	add	sp, sp, #0x130
     938:	d65f03c0 	ret

000000000000093c <dhex_dump>:
dhex_dump():
/usr/src/debug/optee-os-stm32mp/4.0.0-stm32mp-r1/lib/libutils/ext/trace.c:287
     93c:	d65f03c0 	ret

0000000000000940 <__vsnprintf>:
__vsnprintf():
/usr/src/debug/optee-os-stm32mp/4.0.0-stm32mp-r1/lib/libutils/ext/snprintk.c:138
     940:	d101c3ff 	sub	sp, sp, #0x70
     944:	d00000c5 	adrp	x5, 1a000 <_DYNAMIC>
     948:	a9037bfd 	stp	x29, x30, [sp, #48]
     94c:	9100c3fd 	add	x29, sp, #0x30
     950:	f94098a5 	ldr	x5, [x5, #304]
     954:	a90453f3 	stp	x19, x20, [sp, #64]
     958:	aa0103f4 	mov	x20, x1
     95c:	a9055bf5 	stp	x21, x22, [sp, #80]
     960:	aa0003f3 	mov	x19, x0
/usr/src/debug/optee-os-stm32mp/4.0.0-stm32mp-r1/lib/libutils/ext/snprintk.c:142
     964:	8b140016 	add	x22, x0, x20
/usr/src/debug/optee-os-stm32mp/4.0.0-stm32mp-r1/lib/libutils/ext/snprintk.c:138
     968:	f90033f7 	str	x23, [sp, #96]
     96c:	aa0303e1 	mov	x1, x3
     970:	aa0203f5 	mov	x21, x2
     974:	12001c97 	and	w23, w4, #0xff
     978:	f94000a0 	ldr	x0, [x5]
     97c:	f90017e0 	str	x0, [sp, #40]
     980:	d2800000 	mov	x0, #0x0                   	// #0
/usr/src/debug/optee-os-stm32mp/4.0.0-stm32mp-r1/lib/libutils/ext/snprintk.c:143
     984:	910003e5 	mov	x5, sp
     988:	aa0503e0 	mov	x0, x5
     98c:	d2800402 	mov	x2, #0x20                  	// #32
/usr/src/debug/optee-os-stm32mp/4.0.0-stm32mp-r1/lib/libutils/ext/snprintk.c:142
     990:	f90013f6 	str	x22, [sp, #32]
/usr/src/debug/optee-os-stm32mp/4.0.0-stm32mp-r1/lib/libutils/ext/snprintk.c:143
     994:	97fffd9b 	bl	0 <memcpy>
     998:	aa0003e3 	mov	x3, x0
     99c:	2a1703e4 	mov	w4, w23
     9a0:	aa1303e2 	mov	x2, x19
     9a4:	910083e1 	add	x1, sp, #0x20
     9a8:	aa1503e0 	mov	x0, x21
     9ac:	94000064 	bl	b3c <kprintf.constprop.0>
/usr/src/debug/optee-os-stm32mp/4.0.0-stm32mp-r1/lib/libutils/ext/snprintk.c:144
     9b0:	f100027f 	cmp	x19, #0x0
     9b4:	fa401a84 	ccmp	x20, #0x0, #0x4, ne	// ne = any
     9b8:	540000a0 	b.eq	9cc <__vsnprintf+0x8c>  // b.none
/usr/src/debug/optee-os-stm32mp/4.0.0-stm32mp-r1/lib/libutils/ext/snprintk.c:146
     9bc:	93407c01 	sxtw	x1, w0
     9c0:	eb20c29f 	cmp	x20, w0, sxtw
     9c4:	54000148 	b.hi	9ec <__vsnprintf+0xac>  // b.pmore
/usr/src/debug/optee-os-stm32mp/4.0.0-stm32mp-r1/lib/libutils/ext/snprintk.c:147
     9c8:	381ff2df 	sturb	wzr, [x22, #-1]
/usr/src/debug/optee-os-stm32mp/4.0.0-stm32mp-r1/lib/libutils/ext/snprintk.c:152
     9cc:	d00000c5 	adrp	x5, 1a000 <_DYNAMIC>
     9d0:	f94098a5 	ldr	x5, [x5, #304]
     9d4:	f94017e1 	ldr	x1, [sp, #40]
     9d8:	f94000a2 	ldr	x2, [x5]
     9dc:	eb020021 	subs	x1, x1, x2
     9e0:	d2800002 	mov	x2, #0x0                   	// #0
     9e4:	54000080 	b.eq	9f4 <__vsnprintf+0xb4>  // b.none
     9e8:	97fffefa 	bl	5d0 <__stack_chk_fail>
/usr/src/debug/optee-os-stm32mp/4.0.0-stm32mp-r1/lib/libutils/ext/snprintk.c:149
     9ec:	38216a7f 	strb	wzr, [x19, x1]
/usr/src/debug/optee-os-stm32mp/4.0.0-stm32mp-r1/lib/libutils/ext/snprintk.c:151
     9f0:	17fffff7 	b	9cc <__vsnprintf+0x8c>
/usr/src/debug/optee-os-stm32mp/4.0.0-stm32mp-r1/lib/libutils/ext/snprintk.c:152
     9f4:	a9437bfd 	ldp	x29, x30, [sp, #48]
     9f8:	a94453f3 	ldp	x19, x20, [sp, #64]
     9fc:	a9455bf5 	ldp	x21, x22, [sp, #80]
     a00:	f94033f7 	ldr	x23, [sp, #96]
     a04:	9101c3ff 	add	sp, sp, #0x70
     a08:	d65f03c0 	ret

0000000000000a0c <vsnprintk>:
vsnprintk():
/usr/src/debug/optee-os-stm32mp/4.0.0-stm32mp-r1/lib/libutils/ext/snprintk.c:130
     a0c:	a9bb7bfd 	stp	x29, x30, [sp, #-80]!
/usr/src/debug/optee-os-stm32mp/4.0.0-stm32mp-r1/lib/libutils/ext/snprintk.c:131
     a10:	9100c3e4 	add	x4, sp, #0x30
/usr/src/debug/optee-os-stm32mp/4.0.0-stm32mp-r1/lib/libutils/ext/snprintk.c:130
     a14:	910003fd 	mov	x29, sp
     a18:	a90153f3 	stp	x19, x20, [sp, #16]
     a1c:	aa0003f3 	mov	x19, x0
     a20:	aa0103f4 	mov	x20, x1
/usr/src/debug/optee-os-stm32mp/4.0.0-stm32mp-r1/lib/libutils/ext/snprintk.c:131
     a24:	aa0403e0 	mov	x0, x4
/usr/src/debug/optee-os-stm32mp/4.0.0-stm32mp-r1/lib/libutils/ext/snprintk.c:130
     a28:	aa0303e1 	mov	x1, x3
     a2c:	f90013f5 	str	x21, [sp, #32]
     a30:	aa0203f5 	mov	x21, x2
/usr/src/debug/optee-os-stm32mp/4.0.0-stm32mp-r1/lib/libutils/ext/snprintk.c:131
     a34:	d2800402 	mov	x2, #0x20                  	// #32
     a38:	97fffd72 	bl	0 <memcpy>
     a3c:	aa1503e2 	mov	x2, x21
     a40:	aa0003e3 	mov	x3, x0
     a44:	aa1403e1 	mov	x1, x20
     a48:	aa1303e0 	mov	x0, x19
     a4c:	52800024 	mov	w4, #0x1                   	// #1
     a50:	97ffffbc 	bl	940 <__vsnprintf>
/usr/src/debug/optee-os-stm32mp/4.0.0-stm32mp-r1/lib/libutils/ext/snprintk.c:132
     a54:	a94153f3 	ldp	x19, x20, [sp, #16]
     a58:	f94013f5 	ldr	x21, [sp, #32]
     a5c:	a8c57bfd 	ldp	x29, x30, [sp], #80
     a60:	d65f03c0 	ret

0000000000000a64 <snprintk>:
snprintk():
/usr/src/debug/optee-os-stm32mp/4.0.0-stm32mp-r1/lib/libutils/ext/snprintk.c:113
     a64:	d104c3ff 	sub	sp, sp, #0x130
     a68:	a9057bfd 	stp	x29, x30, [sp, #80]
     a6c:	910143fd 	add	x29, sp, #0x50
     a70:	a90653f3 	stp	x19, x20, [sp, #96]
     a74:	d00000d3 	adrp	x19, 1a000 <_DYNAMIC>
     a78:	aa0003f4 	mov	x20, x0
     a7c:	f9409a60 	ldr	x0, [x19, #304]
     a80:	a9075bf5 	stp	x21, x22, [sp, #112]
     a84:	aa0103f5 	mov	x21, x1
     a88:	3d8023e0 	str	q0, [sp, #128]
     a8c:	aa0203f6 	mov	x22, x2
/usr/src/debug/optee-os-stm32mp/4.0.0-stm32mp-r1/lib/libutils/ext/snprintk.c:118
     a90:	d2800402 	mov	x2, #0x20                  	// #32
/usr/src/debug/optee-os-stm32mp/4.0.0-stm32mp-r1/lib/libutils/ext/snprintk.c:113
     a94:	3d8027e1 	str	q1, [sp, #144]
     a98:	3d802be2 	str	q2, [sp, #160]
     a9c:	3d802fe3 	str	q3, [sp, #176]
     aa0:	3d8033e4 	str	q4, [sp, #192]
     aa4:	3d8037e5 	str	q5, [sp, #208]
     aa8:	3d803be6 	str	q6, [sp, #224]
     aac:	3d803fe7 	str	q7, [sp, #240]
     ab0:	a91093e3 	stp	x3, x4, [sp, #264]
/usr/src/debug/optee-os-stm32mp/4.0.0-stm32mp-r1/lib/libutils/ext/snprintk.c:118
     ab4:	910003e3 	mov	x3, sp
/usr/src/debug/optee-os-stm32mp/4.0.0-stm32mp-r1/lib/libutils/ext/snprintk.c:113
     ab8:	a9119be5 	stp	x5, x6, [sp, #280]
     abc:	f90097e7 	str	x7, [sp, #296]
     ac0:	f9400001 	ldr	x1, [x0]
     ac4:	f90027e1 	str	x1, [sp, #72]
     ac8:	d2800001 	mov	x1, #0x0                   	// #0
/usr/src/debug/optee-os-stm32mp/4.0.0-stm32mp-r1/lib/libutils/ext/snprintk.c:117
     acc:	9104c3e0 	add	x0, sp, #0x130
     ad0:	a90283e0 	stp	x0, x0, [sp, #40]
     ad4:	910403e0 	add	x0, sp, #0x100
/usr/src/debug/optee-os-stm32mp/4.0.0-stm32mp-r1/lib/libutils/ext/snprintk.c:118
     ad8:	9100a3e1 	add	x1, sp, #0x28
/usr/src/debug/optee-os-stm32mp/4.0.0-stm32mp-r1/lib/libutils/ext/snprintk.c:117
     adc:	f9001fe0 	str	x0, [sp, #56]
     ae0:	128004e0 	mov	w0, #0xffffffd8            	// #-40
     ae4:	b90043e0 	str	w0, [sp, #64]
     ae8:	12800fe0 	mov	w0, #0xffffff80            	// #-128
     aec:	b90047e0 	str	w0, [sp, #68]
/usr/src/debug/optee-os-stm32mp/4.0.0-stm32mp-r1/lib/libutils/ext/snprintk.c:118
     af0:	aa0303e0 	mov	x0, x3
     af4:	97fffd43 	bl	0 <memcpy>
     af8:	aa0003e3 	mov	x3, x0
     afc:	aa1603e2 	mov	x2, x22
     b00:	aa1503e1 	mov	x1, x21
     b04:	aa1403e0 	mov	x0, x20
     b08:	97ffffc1 	bl	a0c <vsnprintk>
/usr/src/debug/optee-os-stm32mp/4.0.0-stm32mp-r1/lib/libutils/ext/snprintk.c:122
     b0c:	f9409a73 	ldr	x19, [x19, #304]
     b10:	f94027e1 	ldr	x1, [sp, #72]
     b14:	f9400262 	ldr	x2, [x19]
     b18:	eb020021 	subs	x1, x1, x2
     b1c:	d2800002 	mov	x2, #0x0                   	// #0
     b20:	54000040 	b.eq	b28 <snprintk+0xc4>  // b.none
     b24:	97fffeab 	bl	5d0 <__stack_chk_fail>
     b28:	a9457bfd 	ldp	x29, x30, [sp, #80]
     b2c:	a94653f3 	ldp	x19, x20, [sp, #96]
     b30:	a9475bf5 	ldp	x21, x22, [sp, #112]
     b34:	9104c3ff 	add	sp, sp, #0x130
     b38:	d65f03c0 	ret

0000000000000b3c <kprintf.constprop.0>:
kprintf():
/usr/src/debug/optee-os-stm32mp/4.0.0-stm32mp-r1/lib/libutils/ext/snprintk.c:242
     b3c:	d103c3ff 	sub	sp, sp, #0xf0
     b40:	aa0103e9 	mov	x9, x1
     b44:	a9097bfd 	stp	x29, x30, [sp, #144]
     b48:	910243fd 	add	x29, sp, #0x90
     b4c:	a90e73fb 	stp	x27, x28, [sp, #224]
     b50:	aa0003fc 	mov	x28, x0
     b54:	12001c80 	and	w0, w4, #0xff
     b58:	b90033e0 	str	w0, [sp, #48]
     b5c:	d00000c0 	adrp	x0, 1a000 <_DYNAMIC>
     b60:	a90a53f3 	stp	x19, x20, [sp, #160]
     b64:	b9401874 	ldr	w20, [x3, #24]
     b68:	f9409800 	ldr	x0, [x0, #304]
     b6c:	a90b5bf5 	stp	x21, x22, [sp, #176]
     b70:	aa0203f6 	mov	x22, x2
     b74:	a90c63f7 	stp	x23, x24, [sp, #192]
     b78:	a90d6bf9 	stp	x25, x26, [sp, #208]
     b7c:	f9400001 	ldr	x1, [x0]
     b80:	f90047e1 	str	x1, [sp, #136]
     b84:	d2800001 	mov	x1, #0x0                   	// #0
     b88:	a9406c73 	ldp	x19, x27, [x3]
/usr/src/debug/optee-os-stm32mp/4.0.0-stm32mp-r1/lib/libutils/ext/snprintk.c:264
     b8c:	b4000469 	cbz	x9, c18 <kprintf.constprop.0+0xdc>
/usr/src/debug/optee-os-stm32mp/4.0.0-stm32mp-r1/lib/libutils/ext/snprintk.c:265
     b90:	f9400139 	ldr	x25, [x9]
/usr/src/debug/optee-os-stm32mp/4.0.0-stm32mp-r1/lib/libutils/ext/snprintk.c:297
     b94:	f00000b8 	adrp	x24, 17000 <__text_end+0x39f8>
/usr/src/debug/optee-os-stm32mp/4.0.0-stm32mp-r1/lib/libutils/ext/snprintk.c:275
     b98:	d2800017 	mov	x23, #0x0                   	// #0
/usr/src/debug/optee-os-stm32mp/4.0.0-stm32mp-r1/lib/libutils/ext/snprintk.c:297
     b9c:	911c6300 	add	x0, x24, #0x718
/usr/src/debug/optee-os-stm32mp/4.0.0-stm32mp-r1/lib/libutils/ext/snprintk.c:273
     ba0:	5280001a 	mov	w26, #0x0                   	// #0
/usr/src/debug/optee-os-stm32mp/4.0.0-stm32mp-r1/lib/libutils/ext/snprintk.c:297
     ba4:	f9001fe0 	str	x0, [sp, #56]
/usr/src/debug/optee-os-stm32mp/4.0.0-stm32mp-r1/lib/libutils/ext/snprintk.c:281 (discriminator 1)
     ba8:	39400380 	ldrb	w0, [x28]
     bac:	7100941f 	cmp	w0, #0x25
     bb0:	7a401804 	ccmp	w0, #0x0, #0x4, ne	// ne = any
     bb4:	54000361 	b.ne	c20 <kprintf.constprop.0+0xe4>  // b.any
/usr/src/debug/optee-os-stm32mp/4.0.0-stm32mp-r1/lib/libutils/ext/snprintk.c:285
     bb8:	340001c0 	cbz	w0, bf0 <kprintf.constprop.0+0xb4>
/usr/src/debug/optee-os-stm32mp/4.0.0-stm32mp-r1/lib/libutils/ext/snprintk.c:288
     bbc:	9100079c 	add	x28, x28, #0x1
     bc0:	2a1403e4 	mov	w4, w20
     bc4:	aa1303e3 	mov	x3, x19
/usr/src/debug/optee-os-stm32mp/4.0.0-stm32mp-r1/lib/libutils/ext/snprintk.c:294
     bc8:	52800001 	mov	w1, #0x0                   	// #0
/usr/src/debug/optee-os-stm32mp/4.0.0-stm32mp-r1/lib/libutils/ext/snprintk.c:293
     bcc:	12800005 	mov	w5, #0xffffffff            	// #-1
/usr/src/debug/optee-os-stm32mp/4.0.0-stm32mp-r1/lib/libutils/ext/snprintk.c:292
     bd0:	5280000b 	mov	w11, #0x0                   	// #0
/usr/src/debug/optee-os-stm32mp/4.0.0-stm32mp-r1/lib/libutils/ext/snprintk.c:290
     bd4:	52800015 	mov	w21, #0x0                   	// #0
/usr/src/debug/optee-os-stm32mp/4.0.0-stm32mp-r1/lib/libutils/ext/snprintk.c:296
     bd8:	38401798 	ldrb	w24, [x28], #1
/usr/src/debug/optee-os-stm32mp/4.0.0-stm32mp-r1/lib/libutils/ext/snprintk.c:297
     bdc:	7100e71f 	cmp	w24, #0x39
     be0:	540006cc 	b.gt	cb8 <kprintf.constprop.0+0x17c>
     be4:	71007f1f 	cmp	w24, #0x1f
     be8:	5400056c 	b.gt	c94 <kprintf.constprop.0+0x158>
/usr/src/debug/optee-os-stm32mp/4.0.0-stm32mp-r1/lib/libutils/ext/snprintk.c:547
     bec:	350006d8 	cbnz	w24, cc4 <kprintf.constprop.0+0x188>
/usr/src/debug/optee-os-stm32mp/4.0.0-stm32mp-r1/lib/libutils/ext/snprintk.c:619
     bf0:	b4000049 	cbz	x9, bf8 <kprintf.constprop.0+0xbc>
/usr/src/debug/optee-os-stm32mp/4.0.0-stm32mp-r1/lib/libutils/ext/snprintk.c:620
     bf4:	f9000136 	str	x22, [x9]
/usr/src/debug/optee-os-stm32mp/4.0.0-stm32mp-r1/lib/libutils/ext/snprintk.c:622
     bf8:	d00000c0 	adrp	x0, 1a000 <_DYNAMIC>
     bfc:	f9409800 	ldr	x0, [x0, #304]
     c00:	f94047e2 	ldr	x2, [sp, #136]
     c04:	f9400001 	ldr	x1, [x0]
     c08:	eb010042 	subs	x2, x2, x1
     c0c:	d2800001 	mov	x1, #0x0                   	// #0
     c10:	540055e0 	b.eq	16cc <kprintf.constprop.0+0xb90>  // b.none
     c14:	97fffe6f 	bl	5d0 <__stack_chk_fail>
/usr/src/debug/optee-os-stm32mp/4.0.0-stm32mp-r1/lib/libutils/ext/snprintk.c:267
     c18:	d2800019 	mov	x25, #0x0                   	// #0
     c1c:	17ffffde 	b	b94 <kprintf.constprop.0+0x58>
/usr/src/debug/optee-os-stm32mp/4.0.0-stm32mp-r1/lib/libutils/ext/snprintk.c:282
     c20:	1100075a 	add	w26, w26, #0x1
/usr/src/debug/optee-os-stm32mp/4.0.0-stm32mp-r1/lib/libutils/ext/snprintk.c:283 (discriminator 1)
     c24:	b40000b6 	cbz	x22, c38 <kprintf.constprop.0+0xfc>
/usr/src/debug/optee-os-stm32mp/4.0.0-stm32mp-r1/lib/libutils/ext/snprintk.c:283 (discriminator 3)
     c28:	f100013f 	cmp	x9, #0x0
     c2c:	fa5912c0 	ccmp	x22, x25, #0x0, ne	// ne = any
     c30:	54000042 	b.cs	c38 <kprintf.constprop.0+0xfc>  // b.hs, b.nlast
/usr/src/debug/optee-os-stm32mp/4.0.0-stm32mp-r1/lib/libutils/ext/snprintk.c:283 (discriminator 4)
     c34:	380016c0 	strb	w0, [x22], #1
/usr/src/debug/optee-os-stm32mp/4.0.0-stm32mp-r1/lib/libutils/ext/snprintk.c:281
     c38:	9100079c 	add	x28, x28, #0x1
     c3c:	17ffffdb 	b	ba8 <kprintf.constprop.0+0x6c>
/usr/src/debug/optee-os-stm32mp/4.0.0-stm32mp-r1/lib/libutils/ext/snprintk.c:297
     c40:	52800561 	mov	w1, #0x2b                  	// #43
     c44:	17ffffe5 	b	bd8 <kprintf.constprop.0+0x9c>
     c48:	f9401fe2 	ldr	x2, [sp, #56]
     c4c:	78605840 	ldrh	w0, [x2, w0, uxtw #1]
     c50:	10000062 	adr	x2, c5c <kprintf.constprop.0+0x120>
     c54:	8b20a840 	add	x0, x2, w0, sxth #2
     c58:	d61f0000 	br	x0
/usr/src/debug/optee-os-stm32mp/4.0.0-stm32mp-r1/lib/libutils/ext/snprintk.c:480
     c5c:	f00000b7 	adrp	x23, 17000 <__text_end+0x39f8>
     c60:	911e8af7 	add	x23, x23, #0x7a2
/usr/src/debug/optee-os-stm32mp/4.0.0-stm32mp-r1/lib/libutils/ext/snprintk.c:481
     c64:	363844b5 	tbz	w21, #7, 14f8 <kprintf.constprop.0+0x9bc>
/usr/src/debug/optee-os-stm32mp/4.0.0-stm32mp-r1/lib/libutils/ext/snprintk.c:481 (discriminator 13)
     c68:	37f845e4 	tbnz	w4, #31, 1524 <kprintf.constprop.0+0x9e8>
     c6c:	91003c73 	add	x19, x3, #0xf
     c70:	2a0403f4 	mov	w20, w4
     c74:	927df273 	and	x19, x19, #0xfffffffffffffff8
     c78:	f9400062 	ldr	x2, [x3]
/usr/src/debug/optee-os-stm32mp/4.0.0-stm32mp-r1/lib/libutils/ext/snprintk.c:484
     c7c:	36003515 	tbz	w21, #0, 131c <kprintf.constprop.0+0x7e0>
/usr/src/debug/optee-os-stm32mp/4.0.0-stm32mp-r1/lib/libutils/ext/snprintk.c:484 (discriminator 1)
     c80:	b40034e2 	cbz	x2, 131c <kprintf.constprop.0+0x7e0>
/usr/src/debug/optee-os-stm32mp/4.0.0-stm32mp-r1/lib/libutils/ext/snprintk.c:485
     c84:	321f02b5 	orr	w21, w21, #0x2
/usr/src/debug/optee-os-stm32mp/4.0.0-stm32mp-r1/lib/libutils/ext/snprintk.c:482
     c88:	52800040 	mov	w0, #0x2                   	// #2
/usr/src/debug/optee-os-stm32mp/4.0.0-stm32mp-r1/lib/libutils/ext/snprintk.c:488
     c8c:	52800001 	mov	w1, #0x0                   	// #0
     c90:	14000086 	b	ea8 <kprintf.constprop.0+0x36c>
/usr/src/debug/optee-os-stm32mp/4.0.0-stm32mp-r1/lib/libutils/ext/snprintk.c:297
     c94:	51008302 	sub	w2, w24, #0x20
     c98:	7100645f 	cmp	w2, #0x19
     c9c:	54fffa88 	b.hi	bec <kprintf.constprop.0+0xb0>  // b.pmore
     ca0:	f00000a0 	adrp	x0, 17000 <__text_end+0x39f8>
     ca4:	911e2000 	add	x0, x0, #0x788
     ca8:	38624800 	ldrb	w0, [x0, w2, uxtw]
     cac:	10000062 	adr	x2, cb8 <kprintf.constprop.0+0x17c>
     cb0:	8b208840 	add	x0, x2, w0, sxtb #2
     cb4:	d61f0000 	br	x0
     cb8:	51011300 	sub	w0, w24, #0x44
     cbc:	7100d81f 	cmp	w0, #0x36
     cc0:	54fffc49 	b.ls	c48 <kprintf.constprop.0+0x10c>  // b.plast
/usr/src/debug/optee-os-stm32mp/4.0.0-stm32mp-r1/lib/libutils/ext/snprintk.c:554
     cc4:	2a0403f4 	mov	w20, w4
     cc8:	aa0303f3 	mov	x19, x3
/usr/src/debug/optee-os-stm32mp/4.0.0-stm32mp-r1/lib/libutils/ext/snprintk.c:551
     ccc:	390183f8 	strb	w24, [sp, #96]
/usr/src/debug/optee-os-stm32mp/4.0.0-stm32mp-r1/lib/libutils/ext/snprintk.c:554
     cd0:	1400005d 	b	e44 <kprintf.constprop.0+0x308>
/usr/src/debug/optee-os-stm32mp/4.0.0-stm32mp-r1/lib/libutils/ext/snprintk.c:305
     cd4:	7100003f 	cmp	w1, #0x0
     cd8:	52800400 	mov	w0, #0x20                  	// #32
     cdc:	1a801021 	csel	w1, w1, w0, ne	// ne = any
     ce0:	17ffffbe 	b	bd8 <kprintf.constprop.0+0x9c>
/usr/src/debug/optee-os-stm32mp/4.0.0-stm32mp-r1/lib/libutils/ext/snprintk.c:308
     ce4:	320002b5 	orr	w21, w21, #0x1
/usr/src/debug/optee-os-stm32mp/4.0.0-stm32mp-r1/lib/libutils/ext/snprintk.c:309
     ce8:	17ffffbc 	b	bd8 <kprintf.constprop.0+0x9c>
/usr/src/debug/optee-os-stm32mp/4.0.0-stm32mp-r1/lib/libutils/ext/snprintk.c:317
     cec:	37f80124 	tbnz	w4, #31, d10 <kprintf.constprop.0+0x1d4>
     cf0:	91002c62 	add	x2, x3, #0xb
     cf4:	aa0303e0 	mov	x0, x3
     cf8:	927df043 	and	x3, x2, #0xfffffffffffffff8
     cfc:	b940000b 	ldr	w11, [x0]
/usr/src/debug/optee-os-stm32mp/4.0.0-stm32mp-r1/lib/libutils/ext/snprintk.c:317 (discriminator 1)
     d00:	36fff6cb 	tbz	w11, #31, bd8 <kprintf.constprop.0+0x9c>
/usr/src/debug/optee-os-stm32mp/4.0.0-stm32mp-r1/lib/libutils/ext/snprintk.c:319
     d04:	4b0b03eb 	neg	w11, w11
/usr/src/debug/optee-os-stm32mp/4.0.0-stm32mp-r1/lib/libutils/ext/snprintk.c:322
     d08:	321e02b5 	orr	w21, w21, #0x4
/usr/src/debug/optee-os-stm32mp/4.0.0-stm32mp-r1/lib/libutils/ext/snprintk.c:323
     d0c:	17ffffb3 	b	bd8 <kprintf.constprop.0+0x9c>
/usr/src/debug/optee-os-stm32mp/4.0.0-stm32mp-r1/lib/libutils/ext/snprintk.c:317
     d10:	11002082 	add	w2, w4, #0x8
     d14:	7100005f 	cmp	w2, #0x0
     d18:	540000cd 	b.le	d30 <kprintf.constprop.0+0x1f4>
     d1c:	91002c66 	add	x6, x3, #0xb
     d20:	aa0303e0 	mov	x0, x3
     d24:	2a0203e4 	mov	w4, w2
     d28:	927df0c3 	and	x3, x6, #0xfffffffffffffff8
     d2c:	17fffff4 	b	cfc <kprintf.constprop.0+0x1c0>
     d30:	8b24c360 	add	x0, x27, w4, sxtw
     d34:	2a0203e4 	mov	w4, w2
     d38:	17fffff1 	b	cfc <kprintf.constprop.0+0x1c0>
/usr/src/debug/optee-os-stm32mp/4.0.0-stm32mp-r1/lib/libutils/ext/snprintk.c:328
     d3c:	38401798 	ldrb	w24, [x28], #1
     d40:	7100ab1f 	cmp	w24, #0x2a
     d44:	54000381 	b.ne	db4 <kprintf.constprop.0+0x278>  // b.any
/usr/src/debug/optee-os-stm32mp/4.0.0-stm32mp-r1/lib/libutils/ext/snprintk.c:329
     d48:	37f80144 	tbnz	w4, #31, d70 <kprintf.constprop.0+0x234>
     d4c:	91002c60 	add	x0, x3, #0xb
     d50:	2a0403e2 	mov	w2, w4
     d54:	927df000 	and	x0, x0, #0xfffffffffffffff8
/usr/src/debug/optee-os-stm32mp/4.0.0-stm32mp-r1/lib/libutils/ext/snprintk.c:330
     d58:	b9400065 	ldr	w5, [x3]
/usr/src/debug/optee-os-stm32mp/4.0.0-stm32mp-r1/lib/libutils/ext/snprintk.c:331
     d5c:	2a0203e4 	mov	w4, w2
     d60:	aa0003e3 	mov	x3, x0
/usr/src/debug/optee-os-stm32mp/4.0.0-stm32mp-r1/lib/libutils/ext/snprintk.c:330
     d64:	710000bf 	cmp	w5, #0x0
     d68:	5a9fa0a5 	csinv	w5, w5, wzr, ge	// ge = tcont
/usr/src/debug/optee-os-stm32mp/4.0.0-stm32mp-r1/lib/libutils/ext/snprintk.c:331
     d6c:	17ffff9b 	b	bd8 <kprintf.constprop.0+0x9c>
/usr/src/debug/optee-os-stm32mp/4.0.0-stm32mp-r1/lib/libutils/ext/snprintk.c:329
     d70:	11002082 	add	w2, w4, #0x8
     d74:	7100005f 	cmp	w2, #0x0
     d78:	5400008d 	b.le	d88 <kprintf.constprop.0+0x24c>
     d7c:	91002c60 	add	x0, x3, #0xb
     d80:	927df000 	and	x0, x0, #0xfffffffffffffff8
     d84:	17fffff5 	b	d58 <kprintf.constprop.0+0x21c>
     d88:	aa0303e0 	mov	x0, x3
     d8c:	8b24c363 	add	x3, x27, w4, sxtw
     d90:	17fffff2 	b	d58 <kprintf.constprop.0+0x21c>
/usr/src/debug/optee-os-stm32mp/4.0.0-stm32mp-r1/lib/libutils/ext/snprintk.c:335
     d94:	1b0200a5 	madd	w5, w5, w2, w0
/usr/src/debug/optee-os-stm32mp/4.0.0-stm32mp-r1/lib/libutils/ext/snprintk.c:336
     d98:	38401798 	ldrb	w24, [x28], #1
/usr/src/debug/optee-os-stm32mp/4.0.0-stm32mp-r1/lib/libutils/ext/snprintk.c:334
     d9c:	5100c300 	sub	w0, w24, #0x30
     da0:	7100241f 	cmp	w0, #0x9
     da4:	54ffff89 	b.ls	d94 <kprintf.constprop.0+0x258>  // b.plast
/usr/src/debug/optee-os-stm32mp/4.0.0-stm32mp-r1/lib/libutils/ext/snprintk.c:338
     da8:	710000bf 	cmp	w5, #0x0
     dac:	5a9fa0a5 	csinv	w5, w5, wzr, ge	// ge = tcont
/usr/src/debug/optee-os-stm32mp/4.0.0-stm32mp-r1/lib/libutils/ext/snprintk.c:339
     db0:	17ffff8b 	b	bdc <kprintf.constprop.0+0xa0>
/usr/src/debug/optee-os-stm32mp/4.0.0-stm32mp-r1/lib/libutils/ext/snprintk.c:333
     db4:	52800005 	mov	w5, #0x0                   	// #0
/usr/src/debug/optee-os-stm32mp/4.0.0-stm32mp-r1/lib/libutils/ext/snprintk.c:335
     db8:	52800142 	mov	w2, #0xa                   	// #10
     dbc:	17fffff8 	b	d9c <kprintf.constprop.0+0x260>
/usr/src/debug/optee-os-stm32mp/4.0.0-stm32mp-r1/lib/libutils/ext/snprintk.c:346
     dc0:	321602b5 	orr	w21, w21, #0x400
/usr/src/debug/optee-os-stm32mp/4.0.0-stm32mp-r1/lib/libutils/ext/snprintk.c:347
     dc4:	17ffff85 	b	bd8 <kprintf.constprop.0+0x9c>
/usr/src/debug/optee-os-stm32mp/4.0.0-stm32mp-r1/lib/libutils/ext/snprintk.c:297
     dc8:	5280000b 	mov	w11, #0x0                   	// #0
/usr/src/debug/optee-os-stm32mp/4.0.0-stm32mp-r1/lib/libutils/ext/snprintk.c:352
     dcc:	52800142 	mov	w2, #0xa                   	// #10
     dd0:	5100c308 	sub	w8, w24, #0x30
/usr/src/debug/optee-os-stm32mp/4.0.0-stm32mp-r1/lib/libutils/ext/snprintk.c:353
     dd4:	38401798 	ldrb	w24, [x28], #1
/usr/src/debug/optee-os-stm32mp/4.0.0-stm32mp-r1/lib/libutils/ext/snprintk.c:354 (discriminator 1)
     dd8:	5100c300 	sub	w0, w24, #0x30
/usr/src/debug/optee-os-stm32mp/4.0.0-stm32mp-r1/lib/libutils/ext/snprintk.c:352
     ddc:	1b02216b 	madd	w11, w11, w2, w8
/usr/src/debug/optee-os-stm32mp/4.0.0-stm32mp-r1/lib/libutils/ext/snprintk.c:354 (discriminator 1)
     de0:	7100241f 	cmp	w0, #0x9
     de4:	54ffff69 	b.ls	dd0 <kprintf.constprop.0+0x294>  // b.plast
     de8:	17ffff7d 	b	bdc <kprintf.constprop.0+0xa0>
/usr/src/debug/optee-os-stm32mp/4.0.0-stm32mp-r1/lib/libutils/ext/snprintk.c:358
     dec:	321a02b5 	orr	w21, w21, #0x40
/usr/src/debug/optee-os-stm32mp/4.0.0-stm32mp-r1/lib/libutils/ext/snprintk.c:359
     df0:	17ffff7a 	b	bd8 <kprintf.constprop.0+0x9c>
/usr/src/debug/optee-os-stm32mp/4.0.0-stm32mp-r1/lib/libutils/ext/snprintk.c:361
     df4:	321902b5 	orr	w21, w21, #0x80
/usr/src/debug/optee-os-stm32mp/4.0.0-stm32mp-r1/lib/libutils/ext/snprintk.c:362
     df8:	17ffff78 	b	bd8 <kprintf.constprop.0+0x9c>
/usr/src/debug/optee-os-stm32mp/4.0.0-stm32mp-r1/lib/libutils/ext/snprintk.c:364
     dfc:	39400380 	ldrb	w0, [x28]
     e00:	7101b01f 	cmp	w0, #0x6c
     e04:	54000081 	b.ne	e14 <kprintf.constprop.0+0x2d8>  // b.any
/usr/src/debug/optee-os-stm32mp/4.0.0-stm32mp-r1/lib/libutils/ext/snprintk.c:328
     e08:	9100079c 	add	x28, x28, #0x1
/usr/src/debug/optee-os-stm32mp/4.0.0-stm32mp-r1/lib/libutils/ext/snprintk.c:372
     e0c:	321b02b5 	orr	w21, w21, #0x20
/usr/src/debug/optee-os-stm32mp/4.0.0-stm32mp-r1/lib/libutils/ext/snprintk.c:373
     e10:	17ffff72 	b	bd8 <kprintf.constprop.0+0x9c>
/usr/src/debug/optee-os-stm32mp/4.0.0-stm32mp-r1/lib/libutils/ext/snprintk.c:368
     e14:	321c02b5 	orr	w21, w21, #0x10
     e18:	17ffff70 	b	bd8 <kprintf.constprop.0+0x9c>
/usr/src/debug/optee-os-stm32mp/4.0.0-stm32mp-r1/lib/libutils/ext/snprintk.c:375
     e1c:	321802b5 	orr	w21, w21, #0x100
/usr/src/debug/optee-os-stm32mp/4.0.0-stm32mp-r1/lib/libutils/ext/snprintk.c:376
     e20:	17ffff6e 	b	bd8 <kprintf.constprop.0+0x9c>
/usr/src/debug/optee-os-stm32mp/4.0.0-stm32mp-r1/lib/libutils/ext/snprintk.c:378
     e24:	321702b5 	orr	w21, w21, #0x200
/usr/src/debug/optee-os-stm32mp/4.0.0-stm32mp-r1/lib/libutils/ext/snprintk.c:379
     e28:	17ffff6c 	b	bd8 <kprintf.constprop.0+0x9c>
/usr/src/debug/optee-os-stm32mp/4.0.0-stm32mp-r1/lib/libutils/ext/snprintk.c:381
     e2c:	37f80164 	tbnz	w4, #31, e58 <kprintf.constprop.0+0x31c>
     e30:	91002c73 	add	x19, x3, #0xb
     e34:	2a0403f4 	mov	w20, w4
     e38:	927df273 	and	x19, x19, #0xfffffffffffffff8
/usr/src/debug/optee-os-stm32mp/4.0.0-stm32mp-r1/lib/libutils/ext/snprintk.c:381 (discriminator 1)
     e3c:	b9400060 	ldr	w0, [x3]
     e40:	390183e0 	strb	w0, [sp, #96]
/usr/src/debug/optee-os-stm32mp/4.0.0-stm32mp-r1/lib/libutils/ext/snprintk.c:550
     e44:	910183ed 	add	x13, sp, #0x60
/usr/src/debug/optee-os-stm32mp/4.0.0-stm32mp-r1/lib/libutils/ext/snprintk.c:552
     e48:	52800025 	mov	w5, #0x1                   	// #1
/usr/src/debug/optee-os-stm32mp/4.0.0-stm32mp-r1/lib/libutils/ext/snprintk.c:291
     e4c:	52800002 	mov	w2, #0x0                   	// #0
/usr/src/debug/optee-os-stm32mp/4.0.0-stm32mp-r1/lib/libutils/ext/snprintk.c:553
     e50:	52800001 	mov	w1, #0x0                   	// #0
/usr/src/debug/optee-os-stm32mp/4.0.0-stm32mp-r1/lib/libutils/ext/snprintk.c:554
     e54:	140000f3 	b	1220 <kprintf.constprop.0+0x6e4>
/usr/src/debug/optee-os-stm32mp/4.0.0-stm32mp-r1/lib/libutils/ext/snprintk.c:381
     e58:	11002094 	add	w20, w4, #0x8
     e5c:	7100029f 	cmp	w20, #0x0
     e60:	5400008d 	b.le	e70 <kprintf.constprop.0+0x334>
     e64:	91002c73 	add	x19, x3, #0xb
     e68:	927df273 	and	x19, x19, #0xfffffffffffffff8
     e6c:	17fffff4 	b	e3c <kprintf.constprop.0+0x300>
     e70:	aa0303f3 	mov	x19, x3
     e74:	8b24c363 	add	x3, x27, w4, sxtw
     e78:	17fffff1 	b	e3c <kprintf.constprop.0+0x300>
/usr/src/debug/optee-os-stm32mp/4.0.0-stm32mp-r1/lib/libutils/ext/snprintk.c:386
     e7c:	321c02b5 	orr	w21, w21, #0x10
/usr/src/debug/optee-os-stm32mp/4.0.0-stm32mp-r1/lib/libutils/ext/snprintk.c:390
     e80:	36380415 	tbz	w21, #7, f00 <kprintf.constprop.0+0x3c4>
/usr/src/debug/optee-os-stm32mp/4.0.0-stm32mp-r1/lib/libutils/ext/snprintk.c:390 (discriminator 13)
     e84:	37f80544 	tbnz	w4, #31, f2c <kprintf.constprop.0+0x3f0>
     e88:	91003c73 	add	x19, x3, #0xf
     e8c:	2a0403f4 	mov	w20, w4
     e90:	927df273 	and	x19, x19, #0xfffffffffffffff8
/usr/src/debug/optee-os-stm32mp/4.0.0-stm32mp-r1/lib/libutils/ext/snprintk.c:390 (discriminator 1)
     e94:	f9400062 	ldr	x2, [x3]
/usr/src/debug/optee-os-stm32mp/4.0.0-stm32mp-r1/lib/libutils/ext/snprintk.c:391
     e98:	b6f82c82 	tbz	x2, #63, 1428 <kprintf.constprop.0+0x8ec>
/usr/src/debug/optee-os-stm32mp/4.0.0-stm32mp-r1/lib/libutils/ext/snprintk.c:392
     e9c:	cb0203e2 	neg	x2, x2
/usr/src/debug/optee-os-stm32mp/4.0.0-stm32mp-r1/lib/libutils/ext/snprintk.c:395
     ea0:	52800020 	mov	w0, #0x1                   	// #1
/usr/src/debug/optee-os-stm32mp/4.0.0-stm32mp-r1/lib/libutils/ext/snprintk.c:393
     ea4:	528005a1 	mov	w1, #0x2d                  	// #45
/usr/src/debug/optee-os-stm32mp/4.0.0-stm32mp-r1/lib/libutils/ext/snprintk.c:494
     ea8:	36f83825 	tbz	w5, #31, 15ac <kprintf.constprop.0+0xa70>
/usr/src/debug/optee-os-stm32mp/4.0.0-stm32mp-r1/lib/libutils/ext/snprintk.c:509
     eac:	7100041f 	cmp	w0, #0x1
     eb0:	54002be0 	b.eq	142c <kprintf.constprop.0+0x8f0>  // b.none
     eb4:	7100081f 	cmp	w0, #0x2
     eb8:	54002360 	b.eq	1324 <kprintf.constprop.0+0x7e8>  // b.none
/usr/src/debug/optee-os-stm32mp/4.0.0-stm32mp-r1/lib/libutils/ext/snprintk.c:494
     ebc:	910217ed 	add	x13, sp, #0x85
/usr/src/debug/optee-os-stm32mp/4.0.0-stm32mp-r1/lib/libutils/ext/snprintk.c:512
     ec0:	12000840 	and	w0, w2, #0x7
     ec4:	aa0d03e4 	mov	x4, x13
     ec8:	1100c000 	add	w0, w0, #0x30
     ecc:	381ffda0 	strb	w0, [x13, #-1]!
/usr/src/debug/optee-os-stm32mp/4.0.0-stm32mp-r1/lib/libutils/ext/snprintk.c:513
     ed0:	d343fc42 	lsr	x2, x2, #3
/usr/src/debug/optee-os-stm32mp/4.0.0-stm32mp-r1/lib/libutils/ext/snprintk.c:514 (discriminator 1)
     ed4:	b5ffff62 	cbnz	x2, ec0 <kprintf.constprop.0+0x384>
/usr/src/debug/optee-os-stm32mp/4.0.0-stm32mp-r1/lib/libutils/ext/snprintk.c:516
     ed8:	360000d5 	tbz	w21, #0, ef0 <kprintf.constprop.0+0x3b4>
/usr/src/debug/optee-os-stm32mp/4.0.0-stm32mp-r1/lib/libutils/ext/snprintk.c:516 (discriminator 1)
     edc:	7100c01f 	cmp	w0, #0x30
     ee0:	54000080 	b.eq	ef0 <kprintf.constprop.0+0x3b4>  // b.none
/usr/src/debug/optee-os-stm32mp/4.0.0-stm32mp-r1/lib/libutils/ext/snprintk.c:517
     ee4:	52800600 	mov	w0, #0x30                  	// #48
     ee8:	381ff1a0 	sturb	w0, [x13, #-1]
     eec:	d100088d 	sub	x13, x4, #0x2
/usr/src/debug/optee-os-stm32mp/4.0.0-stm32mp-r1/lib/libutils/ext/snprintk.c:494
     ef0:	2a0503e2 	mov	w2, w5
/usr/src/debug/optee-os-stm32mp/4.0.0-stm32mp-r1/lib/libutils/ext/snprintk.c:543
     ef4:	910217e5 	add	x5, sp, #0x85
     ef8:	4b0d00a5 	sub	w5, w5, w13
     efc:	140000c9 	b	1220 <kprintf.constprop.0+0x6e4>
/usr/src/debug/optee-os-stm32mp/4.0.0-stm32mp-r1/lib/libutils/ext/snprintk.c:390 (discriminator 2)
     f00:	3747fc35 	tbnz	w21, #8, e84 <kprintf.constprop.0+0x348>
/usr/src/debug/optee-os-stm32mp/4.0.0-stm32mp-r1/lib/libutils/ext/snprintk.c:390 (discriminator 5)
     f04:	374ffc15 	tbnz	w21, #9, e84 <kprintf.constprop.0+0x348>
/usr/src/debug/optee-os-stm32mp/4.0.0-stm32mp-r1/lib/libutils/ext/snprintk.c:390 (discriminator 8)
     f08:	372ffbf5 	tbnz	w21, #5, e84 <kprintf.constprop.0+0x348>
/usr/src/debug/optee-os-stm32mp/4.0.0-stm32mp-r1/lib/libutils/ext/snprintk.c:390 (discriminator 11)
     f0c:	3727fbd5 	tbnz	w21, #4, e84 <kprintf.constprop.0+0x348>
/usr/src/debug/optee-os-stm32mp/4.0.0-stm32mp-r1/lib/libutils/ext/snprintk.c:390 (discriminator 14)
     f10:	36300335 	tbz	w21, #6, f74 <kprintf.constprop.0+0x438>
/usr/src/debug/optee-os-stm32mp/4.0.0-stm32mp-r1/lib/libutils/ext/snprintk.c:390 (discriminator 16)
     f14:	37f801e4 	tbnz	w4, #31, f50 <kprintf.constprop.0+0x414>
     f18:	91002c73 	add	x19, x3, #0xb
     f1c:	2a0403f4 	mov	w20, w4
     f20:	927df273 	and	x19, x19, #0xfffffffffffffff8
/usr/src/debug/optee-os-stm32mp/4.0.0-stm32mp-r1/lib/libutils/ext/snprintk.c:390 (discriminator 1)
     f24:	79800062 	ldrsh	x2, [x3]
     f28:	17ffffdc 	b	e98 <kprintf.constprop.0+0x35c>
/usr/src/debug/optee-os-stm32mp/4.0.0-stm32mp-r1/lib/libutils/ext/snprintk.c:390 (discriminator 13)
     f2c:	11002094 	add	w20, w4, #0x8
     f30:	7100029f 	cmp	w20, #0x0
     f34:	5400008d 	b.le	f44 <kprintf.constprop.0+0x408>
     f38:	91003c73 	add	x19, x3, #0xf
     f3c:	927df273 	and	x19, x19, #0xfffffffffffffff8
     f40:	17ffffd5 	b	e94 <kprintf.constprop.0+0x358>
     f44:	aa0303f3 	mov	x19, x3
     f48:	8b24c363 	add	x3, x27, w4, sxtw
     f4c:	17ffffd2 	b	e94 <kprintf.constprop.0+0x358>
/usr/src/debug/optee-os-stm32mp/4.0.0-stm32mp-r1/lib/libutils/ext/snprintk.c:390 (discriminator 16)
     f50:	11002094 	add	w20, w4, #0x8
     f54:	7100029f 	cmp	w20, #0x0
     f58:	5400008d 	b.le	f68 <kprintf.constprop.0+0x42c>
     f5c:	91002c73 	add	x19, x3, #0xb
     f60:	927df273 	and	x19, x19, #0xfffffffffffffff8
     f64:	17fffff0 	b	f24 <kprintf.constprop.0+0x3e8>
     f68:	aa0303f3 	mov	x19, x3
     f6c:	8b24c363 	add	x3, x27, w4, sxtw
     f70:	17ffffed 	b	f24 <kprintf.constprop.0+0x3e8>
/usr/src/debug/optee-os-stm32mp/4.0.0-stm32mp-r1/lib/libutils/ext/snprintk.c:390 (discriminator 17)
     f74:	37f800c4 	tbnz	w4, #31, f8c <kprintf.constprop.0+0x450>
     f78:	91002c73 	add	x19, x3, #0xb
     f7c:	2a0403f4 	mov	w20, w4
     f80:	927df273 	and	x19, x19, #0xfffffffffffffff8
/usr/src/debug/optee-os-stm32mp/4.0.0-stm32mp-r1/lib/libutils/ext/snprintk.c:390 (discriminator 1)
     f84:	b9800062 	ldrsw	x2, [x3]
     f88:	17ffffc4 	b	e98 <kprintf.constprop.0+0x35c>
/usr/src/debug/optee-os-stm32mp/4.0.0-stm32mp-r1/lib/libutils/ext/snprintk.c:390 (discriminator 17)
     f8c:	11002094 	add	w20, w4, #0x8
     f90:	7100029f 	cmp	w20, #0x0
     f94:	5400008d 	b.le	fa4 <kprintf.constprop.0+0x468>
     f98:	91002c73 	add	x19, x3, #0xb
     f9c:	927df273 	and	x19, x19, #0xfffffffffffffff8
     fa0:	17fffff9 	b	f84 <kprintf.constprop.0+0x448>
     fa4:	aa0303f3 	mov	x19, x3
     fa8:	8b24c363 	add	x3, x27, w4, sxtw
     fac:	17fffff6 	b	f84 <kprintf.constprop.0+0x448>
/usr/src/debug/optee-os-stm32mp/4.0.0-stm32mp-r1/lib/libutils/ext/snprintk.c:398
     fb0:	36380135 	tbz	w21, #7, fd4 <kprintf.constprop.0+0x498>
/usr/src/debug/optee-os-stm32mp/4.0.0-stm32mp-r1/lib/libutils/ext/snprintk.c:407
     fb4:	37f80284 	tbnz	w4, #31, 1004 <kprintf.constprop.0+0x4c8>
     fb8:	91003c73 	add	x19, x3, #0xf
     fbc:	2a0403f4 	mov	w20, w4
     fc0:	927df273 	and	x19, x19, #0xfffffffffffffff8
/usr/src/debug/optee-os-stm32mp/4.0.0-stm32mp-r1/lib/libutils/ext/snprintk.c:407 (discriminator 1)
     fc4:	f9400060 	ldr	x0, [x3]
     fc8:	93407f41 	sxtw	x1, w26
     fcc:	f9000001 	str	x1, [x0]
     fd0:	17fffef6 	b	ba8 <kprintf.constprop.0+0x6c>
/usr/src/debug/optee-os-stm32mp/4.0.0-stm32mp-r1/lib/libutils/ext/snprintk.c:400
     fd4:	3747ff15 	tbnz	w21, #8, fb4 <kprintf.constprop.0+0x478>
/usr/src/debug/optee-os-stm32mp/4.0.0-stm32mp-r1/lib/libutils/ext/snprintk.c:402
     fd8:	374ffef5 	tbnz	w21, #9, fb4 <kprintf.constprop.0+0x478>
/usr/src/debug/optee-os-stm32mp/4.0.0-stm32mp-r1/lib/libutils/ext/snprintk.c:404
     fdc:	372ffed5 	tbnz	w21, #5, fb4 <kprintf.constprop.0+0x478>
/usr/src/debug/optee-os-stm32mp/4.0.0-stm32mp-r1/lib/libutils/ext/snprintk.c:406
     fe0:	3727feb5 	tbnz	w21, #4, fb4 <kprintf.constprop.0+0x478>
/usr/src/debug/optee-os-stm32mp/4.0.0-stm32mp-r1/lib/libutils/ext/snprintk.c:408
     fe4:	36300355 	tbz	w21, #6, 104c <kprintf.constprop.0+0x510>
/usr/src/debug/optee-os-stm32mp/4.0.0-stm32mp-r1/lib/libutils/ext/snprintk.c:409
     fe8:	37f80204 	tbnz	w4, #31, 1028 <kprintf.constprop.0+0x4ec>
     fec:	91003c73 	add	x19, x3, #0xf
     ff0:	2a0403f4 	mov	w20, w4
     ff4:	927df273 	and	x19, x19, #0xfffffffffffffff8
/usr/src/debug/optee-os-stm32mp/4.0.0-stm32mp-r1/lib/libutils/ext/snprintk.c:409 (discriminator 1)
     ff8:	f9400060 	ldr	x0, [x3]
     ffc:	7900001a 	strh	w26, [x0]
    1000:	17fffeea 	b	ba8 <kprintf.constprop.0+0x6c>
/usr/src/debug/optee-os-stm32mp/4.0.0-stm32mp-r1/lib/libutils/ext/snprintk.c:407
    1004:	11002094 	add	w20, w4, #0x8
    1008:	7100029f 	cmp	w20, #0x0
    100c:	5400008d 	b.le	101c <kprintf.constprop.0+0x4e0>
    1010:	91003c73 	add	x19, x3, #0xf
    1014:	927df273 	and	x19, x19, #0xfffffffffffffff8
    1018:	17ffffeb 	b	fc4 <kprintf.constprop.0+0x488>
    101c:	aa0303f3 	mov	x19, x3
    1020:	8b24c363 	add	x3, x27, w4, sxtw
    1024:	17ffffe8 	b	fc4 <kprintf.constprop.0+0x488>
/usr/src/debug/optee-os-stm32mp/4.0.0-stm32mp-r1/lib/libutils/ext/snprintk.c:409
    1028:	11002094 	add	w20, w4, #0x8
    102c:	7100029f 	cmp	w20, #0x0
    1030:	5400008d 	b.le	1040 <kprintf.constprop.0+0x504>
    1034:	91003c73 	add	x19, x3, #0xf
    1038:	927df273 	and	x19, x19, #0xfffffffffffffff8
    103c:	17ffffef 	b	ff8 <kprintf.constprop.0+0x4bc>
    1040:	aa0303f3 	mov	x19, x3
    1044:	8b24c363 	add	x3, x27, w4, sxtw
    1048:	17ffffec 	b	ff8 <kprintf.constprop.0+0x4bc>
/usr/src/debug/optee-os-stm32mp/4.0.0-stm32mp-r1/lib/libutils/ext/snprintk.c:411
    104c:	37f800e4 	tbnz	w4, #31, 1068 <kprintf.constprop.0+0x52c>
    1050:	91003c73 	add	x19, x3, #0xf
    1054:	2a0403f4 	mov	w20, w4
    1058:	927df273 	and	x19, x19, #0xfffffffffffffff8
/usr/src/debug/optee-os-stm32mp/4.0.0-stm32mp-r1/lib/libutils/ext/snprintk.c:411 (discriminator 1)
    105c:	f9400060 	ldr	x0, [x3]
    1060:	b900001a 	str	w26, [x0]
    1064:	17fffed1 	b	ba8 <kprintf.constprop.0+0x6c>
/usr/src/debug/optee-os-stm32mp/4.0.0-stm32mp-r1/lib/libutils/ext/snprintk.c:411
    1068:	11002094 	add	w20, w4, #0x8
    106c:	7100029f 	cmp	w20, #0x0
    1070:	5400008d 	b.le	1080 <kprintf.constprop.0+0x544>
    1074:	91003c73 	add	x19, x3, #0xf
    1078:	927df273 	and	x19, x19, #0xfffffffffffffff8
    107c:	17fffff8 	b	105c <kprintf.constprop.0+0x520>
    1080:	aa0303f3 	mov	x19, x3
    1084:	8b24c363 	add	x3, x27, w4, sxtw
    1088:	17fffff5 	b	105c <kprintf.constprop.0+0x520>
/usr/src/debug/optee-os-stm32mp/4.0.0-stm32mp-r1/lib/libutils/ext/snprintk.c:414
    108c:	321c02b5 	orr	w21, w21, #0x10
/usr/src/debug/optee-os-stm32mp/4.0.0-stm32mp-r1/lib/libutils/ext/snprintk.c:417
    1090:	36380155 	tbz	w21, #7, 10b8 <kprintf.constprop.0+0x57c>
/usr/src/debug/optee-os-stm32mp/4.0.0-stm32mp-r1/lib/libutils/ext/snprintk.c:417 (discriminator 13)
    1094:	37f80284 	tbnz	w4, #31, 10e4 <kprintf.constprop.0+0x5a8>
    1098:	91003c73 	add	x19, x3, #0xf
    109c:	2a0403f4 	mov	w20, w4
    10a0:	927df273 	and	x19, x19, #0xfffffffffffffff8
    10a4:	f9400062 	ldr	x2, [x3]
/usr/src/debug/optee-os-stm32mp/4.0.0-stm32mp-r1/lib/libutils/ext/snprintk.c:494
    10a8:	52800001 	mov	w1, #0x0                   	// #0
    10ac:	37fff085 	tbnz	w5, #31, ebc <kprintf.constprop.0+0x380>
    10b0:	52800000 	mov	w0, #0x0                   	// #0
    10b4:	1400013e 	b	15ac <kprintf.constprop.0+0xa70>
/usr/src/debug/optee-os-stm32mp/4.0.0-stm32mp-r1/lib/libutils/ext/snprintk.c:417 (discriminator 2)
    10b8:	3747fef5 	tbnz	w21, #8, 1094 <kprintf.constprop.0+0x558>
/usr/src/debug/optee-os-stm32mp/4.0.0-stm32mp-r1/lib/libutils/ext/snprintk.c:417 (discriminator 5)
    10bc:	374ffed5 	tbnz	w21, #9, 1094 <kprintf.constprop.0+0x558>
/usr/src/debug/optee-os-stm32mp/4.0.0-stm32mp-r1/lib/libutils/ext/snprintk.c:417 (discriminator 8)
    10c0:	372ffeb5 	tbnz	w21, #5, 1094 <kprintf.constprop.0+0x558>
/usr/src/debug/optee-os-stm32mp/4.0.0-stm32mp-r1/lib/libutils/ext/snprintk.c:417 (discriminator 11)
    10c4:	3727fe95 	tbnz	w21, #4, 1094 <kprintf.constprop.0+0x558>
/usr/src/debug/optee-os-stm32mp/4.0.0-stm32mp-r1/lib/libutils/ext/snprintk.c:417 (discriminator 14)
    10c8:	36300335 	tbz	w21, #6, 112c <kprintf.constprop.0+0x5f0>
/usr/src/debug/optee-os-stm32mp/4.0.0-stm32mp-r1/lib/libutils/ext/snprintk.c:417 (discriminator 16)
    10cc:	37f801e4 	tbnz	w4, #31, 1108 <kprintf.constprop.0+0x5cc>
    10d0:	91002c73 	add	x19, x3, #0xb
    10d4:	2a0403f4 	mov	w20, w4
    10d8:	927df273 	and	x19, x19, #0xfffffffffffffff8
/usr/src/debug/optee-os-stm32mp/4.0.0-stm32mp-r1/lib/libutils/ext/snprintk.c:417 (discriminator 1)
    10dc:	79400062 	ldrh	w2, [x3]
    10e0:	17fffff2 	b	10a8 <kprintf.constprop.0+0x56c>
/usr/src/debug/optee-os-stm32mp/4.0.0-stm32mp-r1/lib/libutils/ext/snprintk.c:417 (discriminator 13)
    10e4:	11002094 	add	w20, w4, #0x8
    10e8:	7100029f 	cmp	w20, #0x0
    10ec:	5400008d 	b.le	10fc <kprintf.constprop.0+0x5c0>
    10f0:	91003c73 	add	x19, x3, #0xf
    10f4:	927df273 	and	x19, x19, #0xfffffffffffffff8
    10f8:	17ffffeb 	b	10a4 <kprintf.constprop.0+0x568>
    10fc:	aa0303f3 	mov	x19, x3
    1100:	8b24c363 	add	x3, x27, w4, sxtw
    1104:	17ffffe8 	b	10a4 <kprintf.constprop.0+0x568>
/usr/src/debug/optee-os-stm32mp/4.0.0-stm32mp-r1/lib/libutils/ext/snprintk.c:417 (discriminator 16)
    1108:	11002094 	add	w20, w4, #0x8
    110c:	7100029f 	cmp	w20, #0x0
    1110:	5400008d 	b.le	1120 <kprintf.constprop.0+0x5e4>
    1114:	91002c73 	add	x19, x3, #0xb
    1118:	927df273 	and	x19, x19, #0xfffffffffffffff8
    111c:	17fffff0 	b	10dc <kprintf.constprop.0+0x5a0>
    1120:	aa0303f3 	mov	x19, x3
    1124:	8b24c363 	add	x3, x27, w4, sxtw
    1128:	17ffffed 	b	10dc <kprintf.constprop.0+0x5a0>
/usr/src/debug/optee-os-stm32mp/4.0.0-stm32mp-r1/lib/libutils/ext/snprintk.c:417 (discriminator 17)
    112c:	37f800c4 	tbnz	w4, #31, 1144 <kprintf.constprop.0+0x608>
    1130:	91002c73 	add	x19, x3, #0xb
    1134:	2a0403f4 	mov	w20, w4
    1138:	927df273 	and	x19, x19, #0xfffffffffffffff8
/usr/src/debug/optee-os-stm32mp/4.0.0-stm32mp-r1/lib/libutils/ext/snprintk.c:417 (discriminator 1)
    113c:	b9400062 	ldr	w2, [x3]
    1140:	17ffffda 	b	10a8 <kprintf.constprop.0+0x56c>
/usr/src/debug/optee-os-stm32mp/4.0.0-stm32mp-r1/lib/libutils/ext/snprintk.c:417 (discriminator 17)
    1144:	11002094 	add	w20, w4, #0x8
    1148:	7100029f 	cmp	w20, #0x0
    114c:	5400008d 	b.le	115c <kprintf.constprop.0+0x620>
    1150:	91002c73 	add	x19, x3, #0xb
    1154:	927df273 	and	x19, x19, #0xfffffffffffffff8
    1158:	17fffff9 	b	113c <kprintf.constprop.0+0x600>
    115c:	aa0303f3 	mov	x19, x3
    1160:	8b24c363 	add	x3, x27, w4, sxtw
    1164:	17fffff6 	b	113c <kprintf.constprop.0+0x600>
/usr/src/debug/optee-os-stm32mp/4.0.0-stm32mp-r1/lib/libutils/ext/snprintk.c:421
    1168:	f9401be0 	ldr	x0, [sp, #48]
    116c:	36000c60 	tbz	w0, #0, 12f8 <kprintf.constprop.0+0x7bc>
/usr/src/debug/optee-os-stm32mp/4.0.0-stm32mp-r1/lib/libutils/ext/snprintk.c:421 (discriminator 1)
    1170:	39400380 	ldrb	w0, [x28]
    1174:	7101541f 	cmp	w0, #0x55
    1178:	54000c01 	b.ne	12f8 <kprintf.constprop.0+0x7bc>  // b.any
/usr/src/debug/optee-os-stm32mp/4.0.0-stm32mp-r1/lib/libutils/ext/snprintk.c:421 (discriminator 2)
    117c:	39400780 	ldrb	w0, [x28, #1]
    1180:	7101b01f 	cmp	w0, #0x6c
    1184:	54000ba1 	b.ne	12f8 <kprintf.constprop.0+0x7bc>  // b.any
/usr/src/debug/optee-os-stm32mp/4.0.0-stm32mp-r1/lib/libutils/ext/snprintk.c:426
    1188:	91000b9c 	add	x28, x28, #0x2
/usr/src/debug/optee-os-stm32mp/4.0.0-stm32mp-r1/lib/libutils/ext/snprintk.c:427
    118c:	37f80a44 	tbnz	w4, #31, 12d4 <kprintf.constprop.0+0x798>
    1190:	91003c73 	add	x19, x3, #0xf
    1194:	2a0403f4 	mov	w20, w4
    1198:	927df273 	and	x19, x19, #0xfffffffffffffff8
    119c:	f9400061 	ldr	x1, [x3]
uuid2str():
/usr/src/debug/optee-os-stm32mp/4.0.0-stm32mp-r1/lib/libutils/ext/snprintk.c:229
    11a0:	910183ed 	add	x13, sp, #0x60
    11a4:	d00000a2 	adrp	x2, 17000 <__text_end+0x39f8>
    11a8:	91390042 	add	x2, x2, #0xe40
    11ac:	f90023ed 	str	x13, [sp, #64]
    11b0:	39403c20 	ldrb	w0, [x1, #15]
    11b4:	39402427 	ldrb	w7, [x1, #9]
    11b8:	39402026 	ldrb	w6, [x1, #8]
    11bc:	79400c25 	ldrh	w5, [x1, #6]
    11c0:	79400824 	ldrh	w4, [x1, #4]
    11c4:	b9002be0 	str	w0, [sp, #40]
    11c8:	b9004feb 	str	w11, [sp, #76]
    11cc:	39403820 	ldrb	w0, [x1, #14]
    11d0:	b90023e0 	str	w0, [sp, #32]
    11d4:	f9002be9 	str	x9, [sp, #80]
    11d8:	39403420 	ldrb	w0, [x1, #13]
    11dc:	b9001be0 	str	w0, [sp, #24]
    11e0:	39403020 	ldrb	w0, [x1, #12]
    11e4:	b90013e0 	str	w0, [sp, #16]
    11e8:	39402c20 	ldrb	w0, [x1, #11]
    11ec:	b9000be0 	str	w0, [sp, #8]
    11f0:	39402820 	ldrb	w0, [x1, #10]
    11f4:	b90003e0 	str	w0, [sp]
    11f8:	aa0d03e0 	mov	x0, x13
    11fc:	b9400023 	ldr	w3, [x1]
    1200:	d28004a1 	mov	x1, #0x25                  	// #37
    1204:	97fffe18 	bl	a64 <snprintk>
    1208:	f94023ed 	ldr	x13, [sp, #64]
kprintf():
/usr/src/debug/optee-os-stm32mp/4.0.0-stm32mp-r1/lib/libutils/ext/snprintk.c:466 (discriminator 1)
    120c:	2a0003e5 	mov	w5, w0
    1210:	f9402be9 	ldr	x9, [sp, #80]
/usr/src/debug/optee-os-stm32mp/4.0.0-stm32mp-r1/lib/libutils/ext/snprintk.c:291
    1214:	52800002 	mov	w2, #0x0                   	// #0
    1218:	b9404feb 	ldr	w11, [sp, #76]
/usr/src/debug/optee-os-stm32mp/4.0.0-stm32mp-r1/lib/libutils/ext/snprintk.c:467
    121c:	52800001 	mov	w1, #0x0                   	// #0
/usr/src/debug/optee-os-stm32mp/4.0.0-stm32mp-r1/lib/libutils/ext/snprintk.c:571
    1220:	6b05005f 	cmp	w2, w5
    1224:	1a85a040 	csel	w0, w2, w5, ge	// ge = tcont
/usr/src/debug/optee-os-stm32mp/4.0.0-stm32mp-r1/lib/libutils/ext/snprintk.c:572
    1228:	34001ec1 	cbz	w1, 1600 <kprintf.constprop.0+0xac4>
/usr/src/debug/optee-os-stm32mp/4.0.0-stm32mp-r1/lib/libutils/ext/snprintk.c:573
    122c:	11000400 	add	w0, w0, #0x1
/usr/src/debug/optee-os-stm32mp/4.0.0-stm32mp-r1/lib/libutils/ext/snprintk.c:578
    1230:	6b0b001f 	cmp	w0, w11
    1234:	1a8ba004 	csel	w4, w0, w11, ge	// ge = tcont
    1238:	0b04035a 	add	w26, w26, w4
/usr/src/debug/optee-os-stm32mp/4.0.0-stm32mp-r1/lib/libutils/ext/snprintk.c:581
    123c:	52808084 	mov	w4, #0x404                 	// #1028
    1240:	6a0402a4 	ands	w4, w21, w4
    1244:	54000081 	b.ne	1254 <kprintf.constprop.0+0x718>  // b.any
/usr/src/debug/optee-os-stm32mp/4.0.0-stm32mp-r1/lib/libutils/ext/snprintk.c:582
    1248:	4b000166 	sub	w6, w11, w0
/usr/src/debug/optee-os-stm32mp/4.0.0-stm32mp-r1/lib/libutils/ext/snprintk.c:583
    124c:	710000df 	cmp	w6, #0x0
    1250:	54001dec 	b.gt	160c <kprintf.constprop.0+0xad0>
/usr/src/debug/optee-os-stm32mp/4.0.0-stm32mp-r1/lib/libutils/ext/snprintk.c:588
    1254:	34001ec1 	cbz	w1, 162c <kprintf.constprop.0+0xaf0>
/usr/src/debug/optee-os-stm32mp/4.0.0-stm32mp-r1/lib/libutils/ext/snprintk.c:589 (discriminator 1)
    1258:	b40000b6 	cbz	x22, 126c <kprintf.constprop.0+0x730>
/usr/src/debug/optee-os-stm32mp/4.0.0-stm32mp-r1/lib/libutils/ext/snprintk.c:589 (discriminator 3)
    125c:	f100013f 	cmp	x9, #0x0
    1260:	fa561322 	ccmp	x25, x22, #0x2, ne	// ne = any
    1264:	54000049 	b.ls	126c <kprintf.constprop.0+0x730>  // b.plast
/usr/src/debug/optee-os-stm32mp/4.0.0-stm32mp-r1/lib/libutils/ext/snprintk.c:589 (discriminator 4)
    1268:	380016c1 	strb	w1, [x22], #1
/usr/src/debug/optee-os-stm32mp/4.0.0-stm32mp-r1/lib/libutils/ext/snprintk.c:596
    126c:	7110009f 	cmp	w4, #0x400
    1270:	540000a1 	b.ne	1284 <kprintf.constprop.0+0x748>  // b.any
/usr/src/debug/optee-os-stm32mp/4.0.0-stm32mp-r1/lib/libutils/ext/snprintk.c:597
    1274:	4b000161 	sub	w1, w11, w0
/usr/src/debug/optee-os-stm32mp/4.0.0-stm32mp-r1/lib/libutils/ext/snprintk.c:599 (discriminator 4)
    1278:	52800604 	mov	w4, #0x30                  	// #48
/usr/src/debug/optee-os-stm32mp/4.0.0-stm32mp-r1/lib/libutils/ext/snprintk.c:598
    127c:	7100003f 	cmp	w1, #0x0
    1280:	54001fac 	b.gt	1674 <kprintf.constprop.0+0xb38>
/usr/src/debug/optee-os-stm32mp/4.0.0-stm32mp-r1/lib/libutils/ext/snprintk.c:603
    1284:	4b050042 	sub	w2, w2, w5
/usr/src/debug/optee-os-stm32mp/4.0.0-stm32mp-r1/lib/libutils/ext/snprintk.c:605 (discriminator 4)
    1288:	52800601 	mov	w1, #0x30                  	// #48
/usr/src/debug/optee-os-stm32mp/4.0.0-stm32mp-r1/lib/libutils/ext/snprintk.c:604
    128c:	7100005f 	cmp	w2, #0x0
    1290:	5400200c 	b.gt	1690 <kprintf.constprop.0+0xb54>
    1294:	2a0503e5 	mov	w5, w5
    1298:	d2800001 	mov	x1, #0x0                   	// #0
/usr/src/debug/optee-os-stm32mp/4.0.0-stm32mp-r1/lib/libutils/ext/snprintk.c:608 (discriminator 1)
    129c:	eb05003f 	cmp	x1, x5
    12a0:	54002061 	b.ne	16ac <kprintf.constprop.0+0xb70>  // b.any
/usr/src/debug/optee-os-stm32mp/4.0.0-stm32mp-r1/lib/libutils/ext/snprintk.c:611
    12a4:	3617c835 	tbz	w21, #2, ba8 <kprintf.constprop.0+0x6c>
/usr/src/debug/optee-os-stm32mp/4.0.0-stm32mp-r1/lib/libutils/ext/snprintk.c:612
    12a8:	4b000160 	sub	w0, w11, w0
/usr/src/debug/optee-os-stm32mp/4.0.0-stm32mp-r1/lib/libutils/ext/snprintk.c:613
    12ac:	7100001f 	cmp	w0, #0x0
    12b0:	54ffc7cd 	b.le	ba8 <kprintf.constprop.0+0x6c>
/usr/src/debug/optee-os-stm32mp/4.0.0-stm32mp-r1/lib/libutils/ext/snprintk.c:614 (discriminator 1)
    12b4:	b40000d6 	cbz	x22, 12cc <kprintf.constprop.0+0x790>
/usr/src/debug/optee-os-stm32mp/4.0.0-stm32mp-r1/lib/libutils/ext/snprintk.c:614 (discriminator 3)
    12b8:	f100013f 	cmp	x9, #0x0
    12bc:	fa561322 	ccmp	x25, x22, #0x2, ne	// ne = any
    12c0:	54000069 	b.ls	12cc <kprintf.constprop.0+0x790>  // b.plast
/usr/src/debug/optee-os-stm32mp/4.0.0-stm32mp-r1/lib/libutils/ext/snprintk.c:614 (discriminator 4)
    12c4:	52800401 	mov	w1, #0x20                  	// #32
    12c8:	380016c1 	strb	w1, [x22], #1
    12cc:	51000400 	sub	w0, w0, #0x1
    12d0:	17fffff7 	b	12ac <kprintf.constprop.0+0x770>
/usr/src/debug/optee-os-stm32mp/4.0.0-stm32mp-r1/lib/libutils/ext/snprintk.c:427
    12d4:	11002094 	add	w20, w4, #0x8
    12d8:	7100029f 	cmp	w20, #0x0
    12dc:	5400008d 	b.le	12ec <kprintf.constprop.0+0x7b0>
    12e0:	91003c73 	add	x19, x3, #0xf
    12e4:	927df273 	and	x19, x19, #0xfffffffffffffff8
    12e8:	17ffffad 	b	119c <kprintf.constprop.0+0x660>
    12ec:	aa0303f3 	mov	x19, x3
    12f0:	8b24c363 	add	x3, x27, w4, sxtw
    12f4:	17ffffaa 	b	119c <kprintf.constprop.0+0x660>
/usr/src/debug/optee-os-stm32mp/4.0.0-stm32mp-r1/lib/libutils/ext/snprintk.c:441
    12f8:	37f80244 	tbnz	w4, #31, 1340 <kprintf.constprop.0+0x804>
    12fc:	91003c73 	add	x19, x3, #0xf
    1300:	2a0403f4 	mov	w20, w4
    1304:	927df273 	and	x19, x19, #0xfffffffffffffff8
/usr/src/debug/optee-os-stm32mp/4.0.0-stm32mp-r1/lib/libutils/ext/snprintk.c:441 (discriminator 1)
    1308:	f9400062 	ldr	x2, [x3]
/usr/src/debug/optee-os-stm32mp/4.0.0-stm32mp-r1/lib/libutils/ext/snprintk.c:443
    130c:	d00000b7 	adrp	x23, 17000 <__text_end+0x39f8>
/usr/src/debug/optee-os-stm32mp/4.0.0-stm32mp-r1/lib/libutils/ext/snprintk.c:444
    1310:	321f02b5 	orr	w21, w21, #0x2
/usr/src/debug/optee-os-stm32mp/4.0.0-stm32mp-r1/lib/libutils/ext/snprintk.c:443
    1314:	911e8af7 	add	x23, x23, #0x7a2
/usr/src/debug/optee-os-stm32mp/4.0.0-stm32mp-r1/lib/libutils/ext/snprintk.c:445
    1318:	52800f18 	mov	w24, #0x78                  	// #120
/usr/src/debug/optee-os-stm32mp/4.0.0-stm32mp-r1/lib/libutils/ext/snprintk.c:494
    131c:	52800001 	mov	w1, #0x0                   	// #0
    1320:	36f81545 	tbz	w5, #31, 15c8 <kprintf.constprop.0+0xa8c>
    1324:	910217ed 	add	x13, sp, #0x85
/usr/src/debug/optee-os-stm32mp/4.0.0-stm32mp-r1/lib/libutils/ext/snprintk.c:531
    1328:	92400c40 	and	x0, x2, #0xf
/usr/src/debug/optee-os-stm32mp/4.0.0-stm32mp-r1/lib/libutils/ext/snprintk.c:532
    132c:	d344fc42 	lsr	x2, x2, #4
/usr/src/debug/optee-os-stm32mp/4.0.0-stm32mp-r1/lib/libutils/ext/snprintk.c:531
    1330:	38606ae0 	ldrb	w0, [x23, x0]
    1334:	381ffda0 	strb	w0, [x13, #-1]!
/usr/src/debug/optee-os-stm32mp/4.0.0-stm32mp-r1/lib/libutils/ext/snprintk.c:533 (discriminator 1)
    1338:	b5ffff82 	cbnz	x2, 1328 <kprintf.constprop.0+0x7ec>
    133c:	17fffeed 	b	ef0 <kprintf.constprop.0+0x3b4>
/usr/src/debug/optee-os-stm32mp/4.0.0-stm32mp-r1/lib/libutils/ext/snprintk.c:441
    1340:	11002094 	add	w20, w4, #0x8
    1344:	7100029f 	cmp	w20, #0x0
    1348:	5400008d 	b.le	1358 <kprintf.constprop.0+0x81c>
    134c:	91003c73 	add	x19, x3, #0xf
    1350:	927df273 	and	x19, x19, #0xfffffffffffffff8
    1354:	17ffffed 	b	1308 <kprintf.constprop.0+0x7cc>
    1358:	aa0303f3 	mov	x19, x3
    135c:	8b24c363 	add	x3, x27, w4, sxtw
    1360:	17ffffea 	b	1308 <kprintf.constprop.0+0x7cc>
/usr/src/debug/optee-os-stm32mp/4.0.0-stm32mp-r1/lib/libutils/ext/snprintk.c:448
    1364:	37f80344 	tbnz	w4, #31, 13cc <kprintf.constprop.0+0x890>
    1368:	91003c73 	add	x19, x3, #0xf
    136c:	2a0403f4 	mov	w20, w4
    1370:	927df273 	and	x19, x19, #0xfffffffffffffff8
    1374:	f940006d 	ldr	x13, [x3]
/usr/src/debug/optee-os-stm32mp/4.0.0-stm32mp-r1/lib/libutils/ext/snprintk.c:448 (discriminator 1)
    1378:	b500006d 	cbnz	x13, 1384 <kprintf.constprop.0+0x848>
/usr/src/debug/optee-os-stm32mp/4.0.0-stm32mp-r1/lib/libutils/ext/snprintk.c:450
    137c:	d00000a3 	adrp	x3, 17000 <__text_end+0x39f8>
    1380:	9138e46d 	add	x13, x3, #0xe39
/usr/src/debug/optee-os-stm32mp/4.0.0-stm32mp-r1/lib/libutils/ext/snprintk.c:451
    1384:	37f80365 	tbnz	w5, #31, 13f0 <kprintf.constprop.0+0x8b4>
/usr/src/debug/optee-os-stm32mp/4.0.0-stm32mp-r1/lib/libutils/ext/snprintk.c:457
    1388:	93407ca2 	sxtw	x2, w5
    138c:	aa0d03e0 	mov	x0, x13
    1390:	52800001 	mov	w1, #0x0                   	// #0
    1394:	f90023ed 	str	x13, [sp, #64]
    1398:	2909afe5 	stp	w5, w11, [sp, #76]
    139c:	f9002fe9 	str	x9, [sp, #88]
    13a0:	940000e7 	bl	173c <memchr>
/usr/src/debug/optee-os-stm32mp/4.0.0-stm32mp-r1/lib/libutils/ext/snprintk.c:459
    13a4:	f94023ed 	ldr	x13, [sp, #64]
    13a8:	f9402fe9 	ldr	x9, [sp, #88]
    13ac:	2949afe5 	ldp	w5, w11, [sp, #76]
    13b0:	b4000080 	cbz	x0, 13c0 <kprintf.constprop.0+0x884>
/usr/src/debug/optee-os-stm32mp/4.0.0-stm32mp-r1/lib/libutils/ext/snprintk.c:460
    13b4:	cb0d0000 	sub	x0, x0, x13
/usr/src/debug/optee-os-stm32mp/4.0.0-stm32mp-r1/lib/libutils/ext/snprintk.c:461
    13b8:	6b0000bf 	cmp	w5, w0
    13bc:	1a80d0a5 	csel	w5, w5, w0, le
/usr/src/debug/optee-os-stm32mp/4.0.0-stm32mp-r1/lib/libutils/ext/snprintk.c:291
    13c0:	52800002 	mov	w2, #0x0                   	// #0
/usr/src/debug/optee-os-stm32mp/4.0.0-stm32mp-r1/lib/libutils/ext/snprintk.c:467
    13c4:	52800001 	mov	w1, #0x0                   	// #0
    13c8:	17ffff96 	b	1220 <kprintf.constprop.0+0x6e4>
/usr/src/debug/optee-os-stm32mp/4.0.0-stm32mp-r1/lib/libutils/ext/snprintk.c:448
    13cc:	11002094 	add	w20, w4, #0x8
    13d0:	7100029f 	cmp	w20, #0x0
    13d4:	5400008d 	b.le	13e4 <kprintf.constprop.0+0x8a8>
    13d8:	91003c73 	add	x19, x3, #0xf
    13dc:	927df273 	and	x19, x19, #0xfffffffffffffff8
    13e0:	17ffffe5 	b	1374 <kprintf.constprop.0+0x838>
    13e4:	aa0303f3 	mov	x19, x3
    13e8:	8b24c363 	add	x3, x27, w4, sxtw
    13ec:	17ffffe2 	b	1374 <kprintf.constprop.0+0x838>
/usr/src/debug/optee-os-stm32mp/4.0.0-stm32mp-r1/lib/libutils/ext/snprintk.c:466
    13f0:	aa0d03e0 	mov	x0, x13
    13f4:	f90023ed 	str	x13, [sp, #64]
    13f8:	b9004feb 	str	w11, [sp, #76]
    13fc:	f9002be9 	str	x9, [sp, #80]
    1400:	940000da 	bl	1768 <strlen>
    1404:	17ffff81 	b	1208 <kprintf.constprop.0+0x6cc>
/usr/src/debug/optee-os-stm32mp/4.0.0-stm32mp-r1/lib/libutils/ext/snprintk.c:470
    1408:	321c02b5 	orr	w21, w21, #0x10
/usr/src/debug/optee-os-stm32mp/4.0.0-stm32mp-r1/lib/libutils/ext/snprintk.c:473
    140c:	36380175 	tbz	w21, #7, 1438 <kprintf.constprop.0+0x8fc>
/usr/src/debug/optee-os-stm32mp/4.0.0-stm32mp-r1/lib/libutils/ext/snprintk.c:473 (discriminator 13)
    1410:	37f802a4 	tbnz	w4, #31, 1464 <kprintf.constprop.0+0x928>
    1414:	91003c73 	add	x19, x3, #0xf
    1418:	2a0403f4 	mov	w20, w4
    141c:	927df273 	and	x19, x19, #0xfffffffffffffff8
    1420:	f9400062 	ldr	x2, [x3]
/usr/src/debug/optee-os-stm32mp/4.0.0-stm32mp-r1/lib/libutils/ext/snprintk.c:488
    1424:	52800001 	mov	w1, #0x0                   	// #0
/usr/src/debug/optee-os-stm32mp/4.0.0-stm32mp-r1/lib/libutils/ext/snprintk.c:494
    1428:	36f80c05 	tbz	w5, #31, 15a8 <kprintf.constprop.0+0xa6c>
    142c:	910217e0 	add	x0, sp, #0x85
/usr/src/debug/optee-os-stm32mp/4.0.0-stm32mp-r1/lib/libutils/ext/snprintk.c:523
    1430:	d2800144 	mov	x4, #0xa                   	// #10
    1434:	1400006d 	b	15e8 <kprintf.constprop.0+0xaac>
/usr/src/debug/optee-os-stm32mp/4.0.0-stm32mp-r1/lib/libutils/ext/snprintk.c:473 (discriminator 2)
    1438:	3747fed5 	tbnz	w21, #8, 1410 <kprintf.constprop.0+0x8d4>
/usr/src/debug/optee-os-stm32mp/4.0.0-stm32mp-r1/lib/libutils/ext/snprintk.c:473 (discriminator 5)
    143c:	374ffeb5 	tbnz	w21, #9, 1410 <kprintf.constprop.0+0x8d4>
/usr/src/debug/optee-os-stm32mp/4.0.0-stm32mp-r1/lib/libutils/ext/snprintk.c:473 (discriminator 8)
    1440:	372ffe95 	tbnz	w21, #5, 1410 <kprintf.constprop.0+0x8d4>
/usr/src/debug/optee-os-stm32mp/4.0.0-stm32mp-r1/lib/libutils/ext/snprintk.c:473 (discriminator 11)
    1444:	3727fe75 	tbnz	w21, #4, 1410 <kprintf.constprop.0+0x8d4>
/usr/src/debug/optee-os-stm32mp/4.0.0-stm32mp-r1/lib/libutils/ext/snprintk.c:473 (discriminator 14)
    1448:	36300335 	tbz	w21, #6, 14ac <kprintf.constprop.0+0x970>
/usr/src/debug/optee-os-stm32mp/4.0.0-stm32mp-r1/lib/libutils/ext/snprintk.c:473 (discriminator 16)
    144c:	37f801e4 	tbnz	w4, #31, 1488 <kprintf.constprop.0+0x94c>
    1450:	91002c73 	add	x19, x3, #0xb
    1454:	2a0403f4 	mov	w20, w4
    1458:	927df273 	and	x19, x19, #0xfffffffffffffff8
/usr/src/debug/optee-os-stm32mp/4.0.0-stm32mp-r1/lib/libutils/ext/snprintk.c:473 (discriminator 1)
    145c:	79400062 	ldrh	w2, [x3]
    1460:	17fffff1 	b	1424 <kprintf.constprop.0+0x8e8>
/usr/src/debug/optee-os-stm32mp/4.0.0-stm32mp-r1/lib/libutils/ext/snprintk.c:473 (discriminator 13)
    1464:	11002094 	add	w20, w4, #0x8
    1468:	7100029f 	cmp	w20, #0x0
    146c:	5400008d 	b.le	147c <kprintf.constprop.0+0x940>
    1470:	91003c73 	add	x19, x3, #0xf
    1474:	927df273 	and	x19, x19, #0xfffffffffffffff8
    1478:	17ffffea 	b	1420 <kprintf.constprop.0+0x8e4>
    147c:	aa0303f3 	mov	x19, x3
    1480:	8b24c363 	add	x3, x27, w4, sxtw
    1484:	17ffffe7 	b	1420 <kprintf.constprop.0+0x8e4>
/usr/src/debug/optee-os-stm32mp/4.0.0-stm32mp-r1/lib/libutils/ext/snprintk.c:473 (discriminator 16)
    1488:	11002094 	add	w20, w4, #0x8
    148c:	7100029f 	cmp	w20, #0x0
    1490:	5400008d 	b.le	14a0 <kprintf.constprop.0+0x964>
    1494:	91002c73 	add	x19, x3, #0xb
    1498:	927df273 	and	x19, x19, #0xfffffffffffffff8
    149c:	17fffff0 	b	145c <kprintf.constprop.0+0x920>
    14a0:	aa0303f3 	mov	x19, x3
    14a4:	8b24c363 	add	x3, x27, w4, sxtw
    14a8:	17ffffed 	b	145c <kprintf.constprop.0+0x920>
/usr/src/debug/optee-os-stm32mp/4.0.0-stm32mp-r1/lib/libutils/ext/snprintk.c:473 (discriminator 17)
    14ac:	37f800c4 	tbnz	w4, #31, 14c4 <kprintf.constprop.0+0x988>
    14b0:	91002c73 	add	x19, x3, #0xb
    14b4:	2a0403f4 	mov	w20, w4
    14b8:	927df273 	and	x19, x19, #0xfffffffffffffff8
/usr/src/debug/optee-os-stm32mp/4.0.0-stm32mp-r1/lib/libutils/ext/snprintk.c:473 (discriminator 1)
    14bc:	b9400062 	ldr	w2, [x3]
    14c0:	17ffffd9 	b	1424 <kprintf.constprop.0+0x8e8>
/usr/src/debug/optee-os-stm32mp/4.0.0-stm32mp-r1/lib/libutils/ext/snprintk.c:473 (discriminator 17)
    14c4:	11002094 	add	w20, w4, #0x8
    14c8:	7100029f 	cmp	w20, #0x0
    14cc:	5400008d 	b.le	14dc <kprintf.constprop.0+0x9a0>
    14d0:	91002c73 	add	x19, x3, #0xb
    14d4:	927df273 	and	x19, x19, #0xfffffffffffffff8
    14d8:	17fffff9 	b	14bc <kprintf.constprop.0+0x980>
    14dc:	aa0303f3 	mov	x19, x3
    14e0:	8b24c363 	add	x3, x27, w4, sxtw
    14e4:	17fffff6 	b	14bc <kprintf.constprop.0+0x980>
/usr/src/debug/optee-os-stm32mp/4.0.0-stm32mp-r1/lib/libutils/ext/snprintk.c:297
    14e8:	d00000b7 	adrp	x23, 17000 <__text_end+0x39f8>
    14ec:	911e8af7 	add	x23, x23, #0x7a2
    14f0:	910046f7 	add	x23, x23, #0x11
    14f4:	17fffddc 	b	c64 <kprintf.constprop.0+0x128>
/usr/src/debug/optee-os-stm32mp/4.0.0-stm32mp-r1/lib/libutils/ext/snprintk.c:481 (discriminator 2)
    14f8:	3747bb95 	tbnz	w21, #8, c68 <kprintf.constprop.0+0x12c>
/usr/src/debug/optee-os-stm32mp/4.0.0-stm32mp-r1/lib/libutils/ext/snprintk.c:481 (discriminator 5)
    14fc:	374fbb75 	tbnz	w21, #9, c68 <kprintf.constprop.0+0x12c>
/usr/src/debug/optee-os-stm32mp/4.0.0-stm32mp-r1/lib/libutils/ext/snprintk.c:481 (discriminator 8)
    1500:	372fbb55 	tbnz	w21, #5, c68 <kprintf.constprop.0+0x12c>
/usr/src/debug/optee-os-stm32mp/4.0.0-stm32mp-r1/lib/libutils/ext/snprintk.c:481 (discriminator 11)
    1504:	3727bb35 	tbnz	w21, #4, c68 <kprintf.constprop.0+0x12c>
/usr/src/debug/optee-os-stm32mp/4.0.0-stm32mp-r1/lib/libutils/ext/snprintk.c:481 (discriminator 14)
    1508:	36300335 	tbz	w21, #6, 156c <kprintf.constprop.0+0xa30>
/usr/src/debug/optee-os-stm32mp/4.0.0-stm32mp-r1/lib/libutils/ext/snprintk.c:481 (discriminator 16)
    150c:	37f801e4 	tbnz	w4, #31, 1548 <kprintf.constprop.0+0xa0c>
    1510:	91002c73 	add	x19, x3, #0xb
    1514:	2a0403f4 	mov	w20, w4
    1518:	927df273 	and	x19, x19, #0xfffffffffffffff8
/usr/src/debug/optee-os-stm32mp/4.0.0-stm32mp-r1/lib/libutils/ext/snprintk.c:481 (discriminator 1)
    151c:	79400062 	ldrh	w2, [x3]
    1520:	17fffdd7 	b	c7c <kprintf.constprop.0+0x140>
/usr/src/debug/optee-os-stm32mp/4.0.0-stm32mp-r1/lib/libutils/ext/snprintk.c:481 (discriminator 13)
    1524:	11002094 	add	w20, w4, #0x8
    1528:	7100029f 	cmp	w20, #0x0
    152c:	5400008d 	b.le	153c <kprintf.constprop.0+0xa00>
    1530:	91003c73 	add	x19, x3, #0xf
    1534:	927df273 	and	x19, x19, #0xfffffffffffffff8
    1538:	17fffdd0 	b	c78 <kprintf.constprop.0+0x13c>
    153c:	aa0303f3 	mov	x19, x3
    1540:	8b24c363 	add	x3, x27, w4, sxtw
    1544:	17fffdcd 	b	c78 <kprintf.constprop.0+0x13c>
/usr/src/debug/optee-os-stm32mp/4.0.0-stm32mp-r1/lib/libutils/ext/snprintk.c:481 (discriminator 16)
    1548:	11002094 	add	w20, w4, #0x8
    154c:	7100029f 	cmp	w20, #0x0
    1550:	5400008d 	b.le	1560 <kprintf.constprop.0+0xa24>
    1554:	91002c73 	add	x19, x3, #0xb
    1558:	927df273 	and	x19, x19, #0xfffffffffffffff8
    155c:	17fffff0 	b	151c <kprintf.constprop.0+0x9e0>
    1560:	aa0303f3 	mov	x19, x3
    1564:	8b24c363 	add	x3, x27, w4, sxtw
    1568:	17ffffed 	b	151c <kprintf.constprop.0+0x9e0>
/usr/src/debug/optee-os-stm32mp/4.0.0-stm32mp-r1/lib/libutils/ext/snprintk.c:481 (discriminator 17)
    156c:	37f800c4 	tbnz	w4, #31, 1584 <kprintf.constprop.0+0xa48>
    1570:	91002c73 	add	x19, x3, #0xb
    1574:	2a0403f4 	mov	w20, w4
    1578:	927df273 	and	x19, x19, #0xfffffffffffffff8
/usr/src/debug/optee-os-stm32mp/4.0.0-stm32mp-r1/lib/libutils/ext/snprintk.c:481 (discriminator 1)
    157c:	b9400062 	ldr	w2, [x3]
    1580:	17fffdbf 	b	c7c <kprintf.constprop.0+0x140>
/usr/src/debug/optee-os-stm32mp/4.0.0-stm32mp-r1/lib/libutils/ext/snprintk.c:481 (discriminator 17)
    1584:	11002094 	add	w20, w4, #0x8
    1588:	7100029f 	cmp	w20, #0x0
    158c:	5400008d 	b.le	159c <kprintf.constprop.0+0xa60>
    1590:	91002c73 	add	x19, x3, #0xb
    1594:	927df273 	and	x19, x19, #0xfffffffffffffff8
    1598:	17fffff9 	b	157c <kprintf.constprop.0+0xa40>
    159c:	aa0303f3 	mov	x19, x3
    15a0:	8b24c363 	add	x3, x27, w4, sxtw
    15a4:	17fffff6 	b	157c <kprintf.constprop.0+0xa40>
/usr/src/debug/optee-os-stm32mp/4.0.0-stm32mp-r1/lib/libutils/ext/snprintk.c:494
    15a8:	52800020 	mov	w0, #0x1                   	// #1
/usr/src/debug/optee-os-stm32mp/4.0.0-stm32mp-r1/lib/libutils/ext/snprintk.c:503
    15ac:	f100005f 	cmp	x2, #0x0
/usr/src/debug/optee-os-stm32mp/4.0.0-stm32mp-r1/lib/libutils/ext/snprintk.c:495
    15b0:	12157ab5 	and	w21, w21, #0xfffffbff
/usr/src/debug/optee-os-stm32mp/4.0.0-stm32mp-r1/lib/libutils/ext/snprintk.c:503
    15b4:	7a4008a0 	ccmp	w5, #0x0, #0x0, eq	// eq = none
    15b8:	54ffc7a1 	b.ne	eac <kprintf.constprop.0+0x370>  // b.any
/usr/src/debug/optee-os-stm32mp/4.0.0-stm32mp-r1/lib/libutils/ext/snprintk.c:502
    15bc:	910217ed 	add	x13, sp, #0x85
    15c0:	52800005 	mov	w5, #0x0                   	// #0
    15c4:	17fffe4b 	b	ef0 <kprintf.constprop.0+0x3b4>
/usr/src/debug/optee-os-stm32mp/4.0.0-stm32mp-r1/lib/libutils/ext/snprintk.c:494
    15c8:	52800040 	mov	w0, #0x2                   	// #2
    15cc:	17fffff8 	b	15ac <kprintf.constprop.0+0xa70>
/usr/src/debug/optee-os-stm32mp/4.0.0-stm32mp-r1/lib/libutils/ext/snprintk.c:523
    15d0:	9ac40846 	udiv	x6, x2, x4
    15d4:	9b0488c2 	msub	x2, x6, x4, x2
    15d8:	1100c042 	add	w2, w2, #0x30
    15dc:	381ff002 	sturb	w2, [x0, #-1]
/usr/src/debug/optee-os-stm32mp/4.0.0-stm32mp-r1/lib/libutils/ext/snprintk.c:524
    15e0:	aa0603e2 	mov	x2, x6
/usr/src/debug/optee-os-stm32mp/4.0.0-stm32mp-r1/lib/libutils/ext/snprintk.c:523
    15e4:	aa0d03e0 	mov	x0, x13
    15e8:	d100040d 	sub	x13, x0, #0x1
/usr/src/debug/optee-os-stm32mp/4.0.0-stm32mp-r1/lib/libutils/ext/snprintk.c:522
    15ec:	f100245f 	cmp	x2, #0x9
    15f0:	54ffff08 	b.hi	15d0 <kprintf.constprop.0+0xa94>  // b.pmore
/usr/src/debug/optee-os-stm32mp/4.0.0-stm32mp-r1/lib/libutils/ext/snprintk.c:526
    15f4:	1100c042 	add	w2, w2, #0x30
    15f8:	381ff002 	sturb	w2, [x0, #-1]
/usr/src/debug/optee-os-stm32mp/4.0.0-stm32mp-r1/lib/libutils/ext/snprintk.c:527
    15fc:	17fffe3d 	b	ef0 <kprintf.constprop.0+0x3b4>
/usr/src/debug/optee-os-stm32mp/4.0.0-stm32mp-r1/lib/libutils/ext/snprintk.c:574
    1600:	360fe195 	tbz	w21, #1, 1230 <kprintf.constprop.0+0x6f4>
/usr/src/debug/optee-os-stm32mp/4.0.0-stm32mp-r1/lib/libutils/ext/snprintk.c:575
    1604:	11000800 	add	w0, w0, #0x2
    1608:	17ffff0a 	b	1230 <kprintf.constprop.0+0x6f4>
/usr/src/debug/optee-os-stm32mp/4.0.0-stm32mp-r1/lib/libutils/ext/snprintk.c:584 (discriminator 1)
    160c:	b40000d6 	cbz	x22, 1624 <kprintf.constprop.0+0xae8>
/usr/src/debug/optee-os-stm32mp/4.0.0-stm32mp-r1/lib/libutils/ext/snprintk.c:584 (discriminator 3)
    1610:	f100013f 	cmp	x9, #0x0
    1614:	fa561322 	ccmp	x25, x22, #0x2, ne	// ne = any
    1618:	54000069 	b.ls	1624 <kprintf.constprop.0+0xae8>  // b.plast
/usr/src/debug/optee-os-stm32mp/4.0.0-stm32mp-r1/lib/libutils/ext/snprintk.c:584 (discriminator 4)
    161c:	52800403 	mov	w3, #0x20                  	// #32
    1620:	380016c3 	strb	w3, [x22], #1
    1624:	510004c6 	sub	w6, w6, #0x1
    1628:	17ffff09 	b	124c <kprintf.constprop.0+0x710>
/usr/src/debug/optee-os-stm32mp/4.0.0-stm32mp-r1/lib/libutils/ext/snprintk.c:590
    162c:	360fe215 	tbz	w21, #1, 126c <kprintf.constprop.0+0x730>
/usr/src/debug/optee-os-stm32mp/4.0.0-stm32mp-r1/lib/libutils/ext/snprintk.c:591 (discriminator 1)
    1630:	b4ffe1f6 	cbz	x22, 126c <kprintf.constprop.0+0x730>
/usr/src/debug/optee-os-stm32mp/4.0.0-stm32mp-r1/lib/libutils/ext/snprintk.c:591 (discriminator 3)
    1634:	f100013f 	cmp	x9, #0x0
    1638:	1a9f17e6 	cset	w6, eq	// eq = none
    163c:	710000df 	cmp	w6, #0x0
    1640:	fa560322 	ccmp	x25, x22, #0x2, eq	// eq = none
    1644:	54ffe149 	b.ls	126c <kprintf.constprop.0+0x730>  // b.plast
/usr/src/debug/optee-os-stm32mp/4.0.0-stm32mp-r1/lib/libutils/ext/snprintk.c:591 (discriminator 4)
    1648:	aa1603e1 	mov	x1, x22
    164c:	52800607 	mov	w7, #0x30                  	// #48
/usr/src/debug/optee-os-stm32mp/4.0.0-stm32mp-r1/lib/libutils/ext/snprintk.c:592 (discriminator 3)
    1650:	710000df 	cmp	w6, #0x0
/usr/src/debug/optee-os-stm32mp/4.0.0-stm32mp-r1/lib/libutils/ext/snprintk.c:591 (discriminator 4)
    1654:	38001427 	strb	w7, [x1], #1
/usr/src/debug/optee-os-stm32mp/4.0.0-stm32mp-r1/lib/libutils/ext/snprintk.c:592 (discriminator 3)
    1658:	fa410322 	ccmp	x25, x1, #0x2, eq	// eq = none
    165c:	54000089 	b.ls	166c <kprintf.constprop.0+0xb30>  // b.plast
/usr/src/debug/optee-os-stm32mp/4.0.0-stm32mp-r1/lib/libutils/ext/snprintk.c:592 (discriminator 4)
    1660:	91000ad6 	add	x22, x22, #0x2
    1664:	381ff2d8 	sturb	w24, [x22, #-1]
    1668:	17ffff01 	b	126c <kprintf.constprop.0+0x730>
    166c:	aa0103f6 	mov	x22, x1
    1670:	17fffeff 	b	126c <kprintf.constprop.0+0x730>
/usr/src/debug/optee-os-stm32mp/4.0.0-stm32mp-r1/lib/libutils/ext/snprintk.c:599 (discriminator 1)
    1674:	b40000b6 	cbz	x22, 1688 <kprintf.constprop.0+0xb4c>
/usr/src/debug/optee-os-stm32mp/4.0.0-stm32mp-r1/lib/libutils/ext/snprintk.c:599 (discriminator 3)
    1678:	f100013f 	cmp	x9, #0x0
    167c:	fa561322 	ccmp	x25, x22, #0x2, ne	// ne = any
    1680:	54000049 	b.ls	1688 <kprintf.constprop.0+0xb4c>  // b.plast
/usr/src/debug/optee-os-stm32mp/4.0.0-stm32mp-r1/lib/libutils/ext/snprintk.c:599 (discriminator 4)
    1684:	380016c4 	strb	w4, [x22], #1
    1688:	51000421 	sub	w1, w1, #0x1
    168c:	17fffefc 	b	127c <kprintf.constprop.0+0x740>
/usr/src/debug/optee-os-stm32mp/4.0.0-stm32mp-r1/lib/libutils/ext/snprintk.c:605 (discriminator 1)
    1690:	b40000b6 	cbz	x22, 16a4 <kprintf.constprop.0+0xb68>
/usr/src/debug/optee-os-stm32mp/4.0.0-stm32mp-r1/lib/libutils/ext/snprintk.c:605 (discriminator 3)
    1694:	f100013f 	cmp	x9, #0x0
    1698:	fa561322 	ccmp	x25, x22, #0x2, ne	// ne = any
    169c:	54000049 	b.ls	16a4 <kprintf.constprop.0+0xb68>  // b.plast
/usr/src/debug/optee-os-stm32mp/4.0.0-stm32mp-r1/lib/libutils/ext/snprintk.c:605 (discriminator 4)
    16a0:	380016c1 	strb	w1, [x22], #1
    16a4:	51000442 	sub	w2, w2, #0x1
    16a8:	17fffef9 	b	128c <kprintf.constprop.0+0x750>
/usr/src/debug/optee-os-stm32mp/4.0.0-stm32mp-r1/lib/libutils/ext/snprintk.c:609 (discriminator 1)
    16ac:	b40000d6 	cbz	x22, 16c4 <kprintf.constprop.0+0xb88>
/usr/src/debug/optee-os-stm32mp/4.0.0-stm32mp-r1/lib/libutils/ext/snprintk.c:609 (discriminator 3)
    16b0:	f100013f 	cmp	x9, #0x0
    16b4:	fa561322 	ccmp	x25, x22, #0x2, ne	// ne = any
    16b8:	54000069 	b.ls	16c4 <kprintf.constprop.0+0xb88>  // b.plast
/usr/src/debug/optee-os-stm32mp/4.0.0-stm32mp-r1/lib/libutils/ext/snprintk.c:609 (discriminator 4)
    16bc:	386169a2 	ldrb	w2, [x13, x1]
    16c0:	380016c2 	strb	w2, [x22], #1
/usr/src/debug/optee-os-stm32mp/4.0.0-stm32mp-r1/lib/libutils/ext/snprintk.c:608
    16c4:	91000421 	add	x1, x1, #0x1
    16c8:	17fffef5 	b	129c <kprintf.constprop.0+0x760>
/usr/src/debug/optee-os-stm32mp/4.0.0-stm32mp-r1/lib/libutils/ext/snprintk.c:622
    16cc:	a9497bfd 	ldp	x29, x30, [sp, #144]
    16d0:	2a1a03e0 	mov	w0, w26
    16d4:	a94a53f3 	ldp	x19, x20, [sp, #160]
    16d8:	a94b5bf5 	ldp	x21, x22, [sp, #176]
    16dc:	a94c63f7 	ldp	x23, x24, [sp, #192]
    16e0:	a94d6bf9 	ldp	x25, x26, [sp, #208]
    16e4:	a94e73fb 	ldp	x27, x28, [sp, #224]
    16e8:	9103c3ff 	add	sp, sp, #0xf0
    16ec:	d65f03c0 	ret

00000000000016f0 <__vsprintf>:
__vsprintf():
/usr/src/debug/optee-os-stm32mp/4.0.0-stm32mp-r1/lib/libutils/ext/snprintk.c:155
    16f0:	a9bc7bfd 	stp	x29, x30, [sp, #-64]!
/usr/src/debug/optee-os-stm32mp/4.0.0-stm32mp-r1/lib/libutils/ext/snprintk.c:156
    16f4:	910083e3 	add	x3, sp, #0x20
/usr/src/debug/optee-os-stm32mp/4.0.0-stm32mp-r1/lib/libutils/ext/snprintk.c:155
    16f8:	910003fd 	mov	x29, sp
    16fc:	a90153f3 	stp	x19, x20, [sp, #16]
    1700:	aa0003f4 	mov	x20, x0
    1704:	aa0103f3 	mov	x19, x1
/usr/src/debug/optee-os-stm32mp/4.0.0-stm32mp-r1/lib/libutils/ext/snprintk.c:156
    1708:	aa0303e0 	mov	x0, x3
/usr/src/debug/optee-os-stm32mp/4.0.0-stm32mp-r1/lib/libutils/ext/snprintk.c:155
    170c:	aa0203e1 	mov	x1, x2
/usr/src/debug/optee-os-stm32mp/4.0.0-stm32mp-r1/lib/libutils/ext/snprintk.c:156
    1710:	d2800402 	mov	x2, #0x20                  	// #32
    1714:	97fffa3b 	bl	0 <memcpy>
    1718:	aa1403e2 	mov	x2, x20
    171c:	aa0003e3 	mov	x3, x0
    1720:	52800004 	mov	w4, #0x0                   	// #0
    1724:	aa1303e0 	mov	x0, x19
    1728:	d2800001 	mov	x1, #0x0                   	// #0
    172c:	97fffd04 	bl	b3c <kprintf.constprop.0>
/usr/src/debug/optee-os-stm32mp/4.0.0-stm32mp-r1/lib/libutils/ext/snprintk.c:157
    1730:	a94153f3 	ldp	x19, x20, [sp, #16]
    1734:	a8c47bfd 	ldp	x29, x30, [sp], #64
    1738:	d65f03c0 	ret

000000000000173c <memchr>:
memchr():
/usr/src/debug/optee-os-stm32mp/4.0.0-stm32mp-r1/lib/libutils/isoc/newlib/memchr.c:109
    173c:	12001c21 	and	w1, w1, #0xff
/usr/src/debug/optee-os-stm32mp/4.0.0-stm32mp-r1/lib/libutils/isoc/newlib/memchr.c:153
    1740:	8b020002 	add	x2, x0, x2
    1744:	eb02001f 	cmp	x0, x2
    1748:	54000061 	b.ne	1754 <memchr+0x18>  // b.any
/usr/src/debug/optee-os-stm32mp/4.0.0-stm32mp-r1/lib/libutils/isoc/newlib/memchr.c:159
    174c:	d2800000 	mov	x0, #0x0                   	// #0
/usr/src/debug/optee-os-stm32mp/4.0.0-stm32mp-r1/lib/libutils/isoc/newlib/memchr.c:160
    1750:	d65f03c0 	ret
/usr/src/debug/optee-os-stm32mp/4.0.0-stm32mp-r1/lib/libutils/isoc/newlib/memchr.c:154
    1754:	39400003 	ldrb	w3, [x0]
    1758:	6b01007f 	cmp	w3, w1
    175c:	54ffffa0 	b.eq	1750 <memchr+0x14>  // b.none
/usr/src/debug/optee-os-stm32mp/4.0.0-stm32mp-r1/lib/libutils/isoc/newlib/memchr.c:156
    1760:	91000400 	add	x0, x0, #0x1
    1764:	17fffff8 	b	1744 <memchr+0x8>

0000000000001768 <strlen>:
strlen():
/usr/src/debug/optee-os-stm32mp/4.0.0-stm32mp-r1/lib/libutils/isoc/newlib/strlen.c:117
    1768:	aa0003e1 	mov	x1, x0
    176c:	39400022 	ldrb	w2, [x1]
    1770:	35000062 	cbnz	w2, 177c <strlen+0x14>
/usr/src/debug/optee-os-stm32mp/4.0.0-stm32mp-r1/lib/libutils/isoc/newlib/strlen.c:120
    1774:	cb000020 	sub	x0, x1, x0
    1778:	d65f03c0 	ret
/usr/src/debug/optee-os-stm32mp/4.0.0-stm32mp-r1/lib/libutils/isoc/newlib/strlen.c:118
    177c:	91000421 	add	x1, x1, #0x1
    1780:	17fffffb 	b	176c <strlen+0x4>

0000000000001784 <trace_ext_puts>:
trace_ext_puts():
/usr/src/debug/optee-os-stm32mp/4.0.0-stm32mp-r1/lib/libutee/trace_ext.c:22
    1784:	a9be7bfd 	stp	x29, x30, [sp, #-32]!
    1788:	910003fd 	mov	x29, sp
    178c:	f9000bf3 	str	x19, [sp, #16]
    1790:	aa0003f3 	mov	x19, x0
/usr/src/debug/optee-os-stm32mp/4.0.0-stm32mp-r1/lib/libutee/trace_ext.c:26
    1794:	97fffff5 	bl	1768 <strlen>
/usr/src/debug/optee-os-stm32mp/4.0.0-stm32mp-r1/lib/libutee/trace_ext.c:26 (discriminator 1)
    1798:	aa0003e1 	mov	x1, x0
    179c:	aa1303e0 	mov	x0, x19
/usr/src/debug/optee-os-stm32mp/4.0.0-stm32mp-r1/lib/libutee/trace_ext.c:28
    17a0:	f9400bf3 	ldr	x19, [sp, #16]
    17a4:	a8c27bfd 	ldp	x29, x30, [sp], #32
/usr/src/debug/optee-os-stm32mp/4.0.0-stm32mp-r1/lib/libutee/trace_ext.c:26 (discriminator 1)
    17a8:	14001a8b 	b	81d4 <_utee_log>

00000000000017ac <trace_ext_get_thread_id>:
trace_ext_get_thread_id():
/usr/src/debug/optee-os-stm32mp/4.0.0-stm32mp-r1/lib/libutee/trace_ext.c:33
    17ac:	12800000 	mov	w0, #0xffffffff            	// #-1
    17b0:	d65f03c0 	ret

00000000000017b4 <printf>:
printf():
/usr/src/debug/optee-os-stm32mp/4.0.0-stm32mp-r1/lib/libutee/trace_ext.c:41
    17b4:	d108c3ff 	sub	sp, sp, #0x230
    17b8:	a9157bfd 	stp	x29, x30, [sp, #336]
    17bc:	910543fd 	add	x29, sp, #0x150
    17c0:	a91653f3 	stp	x19, x20, [sp, #352]
    17c4:	aa0003f3 	mov	x19, x0
    17c8:	910823e0 	add	x0, sp, #0x208
    17cc:	a91f8be1 	stp	x1, x2, [sp, #504]
    17d0:	b00000c1 	adrp	x1, 1a000 <_DYNAMIC>
    17d4:	3d805fe0 	str	q0, [sp, #368]
    17d8:	3d8063e1 	str	q1, [sp, #384]
    17dc:	3d8067e2 	str	q2, [sp, #400]
    17e0:	3d806be3 	str	q3, [sp, #416]
    17e4:	3d806fe4 	str	q4, [sp, #432]
    17e8:	3d8073e5 	str	q5, [sp, #448]
    17ec:	3d8077e6 	str	q6, [sp, #464]
    17f0:	3d807be7 	str	q7, [sp, #480]
    17f4:	f9409821 	ldr	x1, [x1, #304]
    17f8:	a9001003 	stp	x3, x4, [x0]
    17fc:	a9011805 	stp	x5, x6, [x0, #16]
    1800:	f90117e7 	str	x7, [sp, #552]
    1804:	f9400020 	ldr	x0, [x1]
    1808:	f900a7e0 	str	x0, [sp, #328]
    180c:	d2800000 	mov	x0, #0x0                   	// #0
/usr/src/debug/optee-os-stm32mp/4.0.0-stm32mp-r1/lib/libutee/trace_ext.c:46
    1810:	97fffb83 	bl	61c <trace_get_level>
/usr/src/debug/optee-os-stm32mp/4.0.0-stm32mp-r1/lib/libutee/trace_ext.c:46 (discriminator 1)
    1814:	7100001f 	cmp	w0, #0x0
    1818:	5400040d 	b.le	1898 <printf+0xe4>
/usr/src/debug/optee-os-stm32mp/4.0.0-stm32mp-r1/lib/libutee/trace_ext.c:49
    181c:	9108c3e0 	add	x0, sp, #0x230
/usr/src/debug/optee-os-stm32mp/4.0.0-stm32mp-r1/lib/libutee/trace_ext.c:50
    1820:	910003e3 	mov	x3, sp
/usr/src/debug/optee-os-stm32mp/4.0.0-stm32mp-r1/lib/libutee/trace_ext.c:49
    1824:	a90283e0 	stp	x0, x0, [sp, #40]
    1828:	9107c3e0 	add	x0, sp, #0x1f0
/usr/src/debug/optee-os-stm32mp/4.0.0-stm32mp-r1/lib/libutee/trace_ext.c:50
    182c:	9100a3e1 	add	x1, sp, #0x28
/usr/src/debug/optee-os-stm32mp/4.0.0-stm32mp-r1/lib/libutee/trace_ext.c:49
    1830:	f9001fe0 	str	x0, [sp, #56]
    1834:	128006e0 	mov	w0, #0xffffffc8            	// #-56
    1838:	b90043e0 	str	w0, [sp, #64]
    183c:	12800fe0 	mov	w0, #0xffffff80            	// #-128
/usr/src/debug/optee-os-stm32mp/4.0.0-stm32mp-r1/lib/libutee/trace_ext.c:50
    1840:	d2800402 	mov	x2, #0x20                  	// #32
    1844:	910123f4 	add	x20, sp, #0x48
/usr/src/debug/optee-os-stm32mp/4.0.0-stm32mp-r1/lib/libutee/trace_ext.c:49
    1848:	b90047e0 	str	w0, [sp, #68]
/usr/src/debug/optee-os-stm32mp/4.0.0-stm32mp-r1/lib/libutee/trace_ext.c:50
    184c:	aa0303e0 	mov	x0, x3
    1850:	97fff9ec 	bl	0 <memcpy>
    1854:	aa0003e3 	mov	x3, x0
    1858:	aa1303e2 	mov	x2, x19
    185c:	aa1403e0 	mov	x0, x20
    1860:	d2802001 	mov	x1, #0x100                 	// #256
    1864:	9400469d 	bl	132d8 <vsnprintf>
    1868:	2a0003f3 	mov	w19, w0
/usr/src/debug/optee-os-stm32mp/4.0.0-stm32mp-r1/lib/libutee/trace_ext.c:53
    186c:	37f80060 	tbnz	w0, #31, 1878 <printf+0xc4>
/usr/src/debug/optee-os-stm32mp/4.0.0-stm32mp-r1/lib/libutee/trace_ext.c:56
    1870:	aa1403e0 	mov	x0, x20
    1874:	97ffffc4 	bl	1784 <trace_ext_puts>
/usr/src/debug/optee-os-stm32mp/4.0.0-stm32mp-r1/lib/libutee/trace_ext.c:59
    1878:	b00000c1 	adrp	x1, 1a000 <_DYNAMIC>
    187c:	f9409821 	ldr	x1, [x1, #304]
    1880:	f940a7e0 	ldr	x0, [sp, #328]
    1884:	f9400022 	ldr	x2, [x1]
    1888:	eb020000 	subs	x0, x0, x2
    188c:	d2800002 	mov	x2, #0x0                   	// #0
    1890:	54000080 	b.eq	18a0 <printf+0xec>  // b.none
    1894:	97fffb4f 	bl	5d0 <__stack_chk_fail>
/usr/src/debug/optee-os-stm32mp/4.0.0-stm32mp-r1/lib/libutee/trace_ext.c:47
    1898:	52800013 	mov	w19, #0x0                   	// #0
    189c:	17fffff7 	b	1878 <printf+0xc4>
/usr/src/debug/optee-os-stm32mp/4.0.0-stm32mp-r1/lib/libutee/trace_ext.c:59
    18a0:	a9557bfd 	ldp	x29, x30, [sp, #336]
    18a4:	2a1303e0 	mov	w0, w19
    18a8:	a95653f3 	ldp	x19, x20, [sp, #352]
    18ac:	9108c3ff 	add	sp, sp, #0x230
    18b0:	d65f03c0 	ret

00000000000018b4 <puts>:
puts():
/usr/src/debug/optee-os-stm32mp/4.0.0-stm32mp-r1/lib/libutee/trace_ext.c:62
    18b4:	a9be7bfd 	stp	x29, x30, [sp, #-32]!
    18b8:	910003fd 	mov	x29, sp
    18bc:	f9000bf3 	str	x19, [sp, #16]
    18c0:	aa0003f3 	mov	x19, x0
/usr/src/debug/optee-os-stm32mp/4.0.0-stm32mp-r1/lib/libutee/trace_ext.c:63
    18c4:	97fffb56 	bl	61c <trace_get_level>
/usr/src/debug/optee-os-stm32mp/4.0.0-stm32mp-r1/lib/libutee/trace_ext.c:63 (discriminator 1)
    18c8:	7100001f 	cmp	w0, #0x0
    18cc:	540000cd 	b.le	18e4 <puts+0x30>
/usr/src/debug/optee-os-stm32mp/4.0.0-stm32mp-r1/lib/libutee/trace_ext.c:64
    18d0:	aa1303e0 	mov	x0, x19
    18d4:	97ffffac 	bl	1784 <trace_ext_puts>
/usr/src/debug/optee-os-stm32mp/4.0.0-stm32mp-r1/lib/libutee/trace_ext.c:65
    18d8:	f00000a0 	adrp	x0, 18000 <gcd_pairs+0x53c>
    18dc:	9118b400 	add	x0, x0, #0x62d
    18e0:	97ffffa9 	bl	1784 <trace_ext_puts>
/usr/src/debug/optee-os-stm32mp/4.0.0-stm32mp-r1/lib/libutee/trace_ext.c:68
    18e4:	f9400bf3 	ldr	x19, [sp, #16]
    18e8:	52800020 	mov	w0, #0x1                   	// #1
    18ec:	a8c27bfd 	ldp	x29, x30, [sp], #32
    18f0:	d65f03c0 	ret

00000000000018f4 <putchar>:
putchar():
/usr/src/debug/optee-os-stm32mp/4.0.0-stm32mp-r1/lib/libutee/trace_ext.c:71
    18f4:	d100c3ff 	sub	sp, sp, #0x30
    18f8:	b00000c1 	adrp	x1, 1a000 <_DYNAMIC>
    18fc:	a9017bfd 	stp	x29, x30, [sp, #16]
    1900:	910043fd 	add	x29, sp, #0x10
    1904:	f9409821 	ldr	x1, [x1, #304]
    1908:	f90013f3 	str	x19, [sp, #32]
    190c:	2a0003f3 	mov	w19, w0
    1910:	f9400020 	ldr	x0, [x1]
    1914:	f90007e0 	str	x0, [sp, #8]
    1918:	d2800000 	mov	x0, #0x0                   	// #0
/usr/src/debug/optee-os-stm32mp/4.0.0-stm32mp-r1/lib/libutee/trace_ext.c:72
    191c:	390003f3 	strb	w19, [sp]
    1920:	390007ff 	strb	wzr, [sp, #1]
/usr/src/debug/optee-os-stm32mp/4.0.0-stm32mp-r1/lib/libutee/trace_ext.c:74
    1924:	97fffb3e 	bl	61c <trace_get_level>
/usr/src/debug/optee-os-stm32mp/4.0.0-stm32mp-r1/lib/libutee/trace_ext.c:74 (discriminator 1)
    1928:	7100001f 	cmp	w0, #0x0
    192c:	5400006d 	b.le	1938 <putchar+0x44>
/usr/src/debug/optee-os-stm32mp/4.0.0-stm32mp-r1/lib/libutee/trace_ext.c:75
    1930:	910003e0 	mov	x0, sp
    1934:	97ffff94 	bl	1784 <trace_ext_puts>
/usr/src/debug/optee-os-stm32mp/4.0.0-stm32mp-r1/lib/libutee/trace_ext.c:82
    1938:	b00000c1 	adrp	x1, 1a000 <_DYNAMIC>
/usr/src/debug/optee-os-stm32mp/4.0.0-stm32mp-r1/lib/libutee/trace_ext.c:81
    193c:	12001e60 	and	w0, w19, #0xff
/usr/src/debug/optee-os-stm32mp/4.0.0-stm32mp-r1/lib/libutee/trace_ext.c:82
    1940:	f9409821 	ldr	x1, [x1, #304]
    1944:	f94007e3 	ldr	x3, [sp, #8]
    1948:	f9400022 	ldr	x2, [x1]
    194c:	eb020063 	subs	x3, x3, x2
    1950:	d2800002 	mov	x2, #0x0                   	// #0
    1954:	54000040 	b.eq	195c <putchar+0x68>  // b.none
    1958:	97fffb1e 	bl	5d0 <__stack_chk_fail>
    195c:	a9417bfd 	ldp	x29, x30, [sp, #16]
    1960:	f94013f3 	ldr	x19, [sp, #32]
    1964:	9100c3ff 	add	sp, sp, #0x30
    1968:	d65f03c0 	ret

000000000000196c <__utee_from_attr>:
__utee_from_attr():
/usr/src/debug/optee-os-stm32mp/4.0.0-stm32mp-r1/lib/libutee/tee_api_objects.c:19 (discriminator 1)
    196c:	2a0203e2 	mov	w2, w2
/usr/src/debug/optee-os-stm32mp/4.0.0-stm32mp-r1/lib/libutee/tee_api_objects.c:19
    1970:	d2800003 	mov	x3, #0x0                   	// #0
/usr/src/debug/optee-os-stm32mp/4.0.0-stm32mp-r1/lib/libutee/tee_api_objects.c:19 (discriminator 1)
    1974:	eb03005f 	cmp	x2, x3
    1978:	54000048 	b.hi	1980 <__utee_from_attr+0x14>  // b.pmore
/usr/src/debug/optee-os-stm32mp/4.0.0-stm32mp-r1/lib/libutee/tee_api_objects.c:29
    197c:	d65f03c0 	ret
/usr/src/debug/optee-os-stm32mp/4.0.0-stm32mp-r1/lib/libutee/tee_api_objects.c:20
    1980:	b9400024 	ldr	w4, [x1]
    1984:	b9001004 	str	w4, [x0, #16]
/usr/src/debug/optee-os-stm32mp/4.0.0-stm32mp-r1/lib/libutee/tee_api_objects.c:21
    1988:	36e80124 	tbz	w4, #29, 19ac <__utee_from_attr+0x40>
/usr/src/debug/optee-os-stm32mp/4.0.0-stm32mp-r1/lib/libutee/tee_api_objects.c:22
    198c:	b9400824 	ldr	w4, [x1, #8]
    1990:	f9000004 	str	x4, [x0]
/usr/src/debug/optee-os-stm32mp/4.0.0-stm32mp-r1/lib/libutee/tee_api_objects.c:23
    1994:	b9400c24 	ldr	w4, [x1, #12]
/usr/src/debug/optee-os-stm32mp/4.0.0-stm32mp-r1/lib/libutee/tee_api_objects.c:19 (discriminator 2)
    1998:	91000463 	add	x3, x3, #0x1
    199c:	91006021 	add	x1, x1, #0x18
    19a0:	91006000 	add	x0, x0, #0x18
/usr/src/debug/optee-os-stm32mp/4.0.0-stm32mp-r1/lib/libutee/tee_api_objects.c:23
    19a4:	f81f0004 	stur	x4, [x0, #-16]
/usr/src/debug/optee-os-stm32mp/4.0.0-stm32mp-r1/lib/libutee/tee_api_objects.c:19 (discriminator 2)
    19a8:	17fffff3 	b	1974 <__utee_from_attr+0x8>
/usr/src/debug/optee-os-stm32mp/4.0.0-stm32mp-r1/lib/libutee/tee_api_objects.c:25
    19ac:	f9400424 	ldr	x4, [x1, #8]
    19b0:	f9000004 	str	x4, [x0]
/usr/src/debug/optee-os-stm32mp/4.0.0-stm32mp-r1/lib/libutee/tee_api_objects.c:26
    19b4:	f9400824 	ldr	x4, [x1, #16]
    19b8:	17fffff8 	b	1998 <__utee_from_attr+0x2c>

00000000000019bc <__utee_from_gp11_attr>:
__utee_from_gp11_attr():
/usr/src/debug/optee-os-stm32mp/4.0.0-stm32mp-r1/lib/libutee/tee_api_objects.c:37 (discriminator 1)
    19bc:	2a0203e2 	mov	w2, w2
/usr/src/debug/optee-os-stm32mp/4.0.0-stm32mp-r1/lib/libutee/tee_api_objects.c:37
    19c0:	d2800003 	mov	x3, #0x0                   	// #0
/usr/src/debug/optee-os-stm32mp/4.0.0-stm32mp-r1/lib/libutee/tee_api_objects.c:37 (discriminator 1)
    19c4:	eb03005f 	cmp	x2, x3
    19c8:	54000048 	b.hi	19d0 <__utee_from_gp11_attr+0x14>  // b.pmore
/usr/src/debug/optee-os-stm32mp/4.0.0-stm32mp-r1/lib/libutee/tee_api_objects.c:47
    19cc:	d65f03c0 	ret
/usr/src/debug/optee-os-stm32mp/4.0.0-stm32mp-r1/lib/libutee/tee_api_objects.c:38
    19d0:	b9400024 	ldr	w4, [x1]
    19d4:	b9001004 	str	w4, [x0, #16]
/usr/src/debug/optee-os-stm32mp/4.0.0-stm32mp-r1/lib/libutee/tee_api_objects.c:39
    19d8:	36e80124 	tbz	w4, #29, 19fc <__utee_from_gp11_attr+0x40>
/usr/src/debug/optee-os-stm32mp/4.0.0-stm32mp-r1/lib/libutee/tee_api_objects.c:40
    19dc:	b9400824 	ldr	w4, [x1, #8]
    19e0:	f9000004 	str	x4, [x0]
/usr/src/debug/optee-os-stm32mp/4.0.0-stm32mp-r1/lib/libutee/tee_api_objects.c:41
    19e4:	b9400c24 	ldr	w4, [x1, #12]
/usr/src/debug/optee-os-stm32mp/4.0.0-stm32mp-r1/lib/libutee/tee_api_objects.c:37 (discriminator 2)
    19e8:	91000463 	add	x3, x3, #0x1
    19ec:	91006021 	add	x1, x1, #0x18
    19f0:	91006000 	add	x0, x0, #0x18
/usr/src/debug/optee-os-stm32mp/4.0.0-stm32mp-r1/lib/libutee/tee_api_objects.c:41
    19f4:	f81f0004 	stur	x4, [x0, #-16]
/usr/src/debug/optee-os-stm32mp/4.0.0-stm32mp-r1/lib/libutee/tee_api_objects.c:37 (discriminator 2)
    19f8:	17fffff3 	b	19c4 <__utee_from_gp11_attr+0x8>
/usr/src/debug/optee-os-stm32mp/4.0.0-stm32mp-r1/lib/libutee/tee_api_objects.c:43
    19fc:	f9400424 	ldr	x4, [x1, #8]
    1a00:	f9000004 	str	x4, [x0]
/usr/src/debug/optee-os-stm32mp/4.0.0-stm32mp-r1/lib/libutee/tee_api_objects.c:44
    1a04:	b9401024 	ldr	w4, [x1, #16]
    1a08:	17fffff8 	b	19e8 <__utee_from_gp11_attr+0x2c>

0000000000001a0c <TEE_GetObjectInfo>:
TEE_GetObjectInfo():
/usr/src/debug/optee-os-stm32mp/4.0.0-stm32mp-r1/lib/libutee/tee_api_objects.c:57
    1a0c:	d10143ff 	sub	sp, sp, #0x50
    1a10:	a9037bfd 	stp	x29, x30, [sp, #48]
    1a14:	9100c3fd 	add	x29, sp, #0x30
    1a18:	f90023f3 	str	x19, [sp, #64]
    1a1c:	aa0103f3 	mov	x19, x1
    1a20:	b00000c1 	adrp	x1, 1a000 <_DYNAMIC>
    1a24:	f9409821 	ldr	x1, [x1, #304]
    1a28:	f9400022 	ldr	x2, [x1]
    1a2c:	f90017e2 	str	x2, [sp, #40]
    1a30:	d2800002 	mov	x2, #0x0                   	// #0
/usr/src/debug/optee-os-stm32mp/4.0.0-stm32mp-r1/lib/libutee/tee_api_objects.c:61
    1a34:	910023e1 	add	x1, sp, #0x8
/usr/src/debug/optee-os-stm32mp/4.0.0-stm32mp-r1/lib/libutee/tee_api_objects.c:58
    1a38:	a900ffff 	stp	xzr, xzr, [sp, #8]
    1a3c:	f9000fff 	str	xzr, [sp, #24]
    1a40:	b90023ff 	str	wzr, [sp, #32]
/usr/src/debug/optee-os-stm32mp/4.0.0-stm32mp-r1/lib/libutee/tee_api_objects.c:61
    1a44:	94001a29 	bl	82e8 <_utee_cryp_obj_get_info>
/usr/src/debug/optee-os-stm32mp/4.0.0-stm32mp-r1/lib/libutee/tee_api_objects.c:63
    1a48:	34000040 	cbz	w0, 1a50 <TEE_GetObjectInfo+0x44>
/usr/src/debug/optee-os-stm32mp/4.0.0-stm32mp-r1/lib/libutee/tee_api_objects.c:64
    1a4c:	9400179f 	bl	78c8 <TEE_Panic>
/usr/src/debug/optee-os-stm32mp/4.0.0-stm32mp-r1/lib/libutee/tee_api_objects.c:66
    1a50:	b9400be1 	ldr	w1, [sp, #8]
    1a54:	528017c0 	mov	w0, #0xbe                  	// #190
    1a58:	72b40000 	movk	w0, #0xa000, lsl #16
    1a5c:	6b00003f 	cmp	w1, w0
    1a60:	540001c1 	b.ne	1a98 <TEE_GetObjectInfo+0x8c>  // b.any
/usr/src/debug/optee-os-stm32mp/4.0.0-stm32mp-r1/lib/libutee/tee_api_objects.c:71
    1a64:	52800000 	mov	w0, #0x0                   	// #0
/usr/src/debug/optee-os-stm32mp/4.0.0-stm32mp-r1/lib/libutee/tee_api_objects.c:67
    1a68:	b900067f 	str	wzr, [x19, #4]
/usr/src/debug/optee-os-stm32mp/4.0.0-stm32mp-r1/lib/libutee/tee_api_objects.c:70
    1a6c:	a900fe7f 	stp	xzr, xzr, [x19, #8]
/usr/src/debug/optee-os-stm32mp/4.0.0-stm32mp-r1/lib/libutee/tee_api_objects.c:71
    1a70:	f9000e7f 	str	xzr, [x19, #24]
/usr/src/debug/optee-os-stm32mp/4.0.0-stm32mp-r1/lib/libutee/tee_api_objects.c:82
    1a74:	b00000c1 	adrp	x1, 1a000 <_DYNAMIC>
/usr/src/debug/optee-os-stm32mp/4.0.0-stm32mp-r1/lib/libutee/tee_api_objects.c:72
    1a78:	b9002260 	str	w0, [x19, #32]
/usr/src/debug/optee-os-stm32mp/4.0.0-stm32mp-r1/lib/libutee/tee_api_objects.c:82
    1a7c:	f9409821 	ldr	x1, [x1, #304]
    1a80:	f94017e0 	ldr	x0, [sp, #40]
    1a84:	f9400022 	ldr	x2, [x1]
    1a88:	eb020000 	subs	x0, x0, x2
    1a8c:	d2800002 	mov	x2, #0x0                   	// #0
    1a90:	54000180 	b.eq	1ac0 <TEE_GetObjectInfo+0xb4>  // b.none
    1a94:	97fffacf 	bl	5d0 <__stack_chk_fail>
/usr/src/debug/optee-os-stm32mp/4.0.0-stm32mp-r1/lib/libutee/tee_api_objects.c:74
    1a98:	f94007e0 	ldr	x0, [sp, #8]
    1a9c:	f9000260 	str	x0, [x19]
/usr/src/debug/optee-os-stm32mp/4.0.0-stm32mp-r1/lib/libutee/tee_api_objects.c:76
    1aa0:	f9400be0 	ldr	x0, [sp, #16]
    1aa4:	f9000660 	str	x0, [x19, #8]
/usr/src/debug/optee-os-stm32mp/4.0.0-stm32mp-r1/lib/libutee/tee_api_objects.c:78
    1aa8:	b9401be0 	ldr	w0, [sp, #24]
    1aac:	f9000a60 	str	x0, [x19, #16]
/usr/src/debug/optee-os-stm32mp/4.0.0-stm32mp-r1/lib/libutee/tee_api_objects.c:79
    1ab0:	b9401fe0 	ldr	w0, [sp, #28]
    1ab4:	f9000e60 	str	x0, [x19, #24]
/usr/src/debug/optee-os-stm32mp/4.0.0-stm32mp-r1/lib/libutee/tee_api_objects.c:80
    1ab8:	b94023e0 	ldr	w0, [sp, #32]
    1abc:	17ffffee 	b	1a74 <TEE_GetObjectInfo+0x68>
/usr/src/debug/optee-os-stm32mp/4.0.0-stm32mp-r1/lib/libutee/tee_api_objects.c:82
    1ac0:	a9437bfd 	ldp	x29, x30, [sp, #48]
    1ac4:	f94023f3 	ldr	x19, [sp, #64]
    1ac8:	910143ff 	add	sp, sp, #0x50
    1acc:	d65f03c0 	ret

0000000000001ad0 <__GP11_TEE_GetObjectInfo>:
__GP11_TEE_GetObjectInfo():
/usr/src/debug/optee-os-stm32mp/4.0.0-stm32mp-r1/lib/libutee/tee_api_objects.c:86
    1ad0:	d10143ff 	sub	sp, sp, #0x50
    1ad4:	a9037bfd 	stp	x29, x30, [sp, #48]
    1ad8:	9100c3fd 	add	x29, sp, #0x30
    1adc:	f90023f3 	str	x19, [sp, #64]
    1ae0:	aa0103f3 	mov	x19, x1
    1ae4:	b00000c1 	adrp	x1, 1a000 <_DYNAMIC>
    1ae8:	f9409821 	ldr	x1, [x1, #304]
    1aec:	f9400022 	ldr	x2, [x1]
    1af0:	f90017e2 	str	x2, [sp, #40]
    1af4:	d2800002 	mov	x2, #0x0                   	// #0
/usr/src/debug/optee-os-stm32mp/4.0.0-stm32mp-r1/lib/libutee/tee_api_objects.c:90
    1af8:	910023e1 	add	x1, sp, #0x8
/usr/src/debug/optee-os-stm32mp/4.0.0-stm32mp-r1/lib/libutee/tee_api_objects.c:87
    1afc:	a900ffff 	stp	xzr, xzr, [sp, #8]
    1b00:	f9000fff 	str	xzr, [sp, #24]
    1b04:	b90023ff 	str	wzr, [sp, #32]
/usr/src/debug/optee-os-stm32mp/4.0.0-stm32mp-r1/lib/libutee/tee_api_objects.c:90
    1b08:	940019f8 	bl	82e8 <_utee_cryp_obj_get_info>
/usr/src/debug/optee-os-stm32mp/4.0.0-stm32mp-r1/lib/libutee/tee_api_objects.c:92
    1b0c:	34000040 	cbz	w0, 1b14 <__GP11_TEE_GetObjectInfo+0x44>
/usr/src/debug/optee-os-stm32mp/4.0.0-stm32mp-r1/lib/libutee/tee_api_objects.c:93
    1b10:	9400176e 	bl	78c8 <TEE_Panic>
/usr/src/debug/optee-os-stm32mp/4.0.0-stm32mp-r1/lib/libutee/tee_api_objects.c:95
    1b14:	b9400be0 	ldr	w0, [sp, #8]
    1b18:	528017c1 	mov	w1, #0xbe                  	// #190
    1b1c:	72b40001 	movk	w1, #0xa000, lsl #16
    1b20:	6b01001f 	cmp	w0, w1
    1b24:	540001c1 	b.ne	1b5c <__GP11_TEE_GetObjectInfo+0x8c>  // b.any
/usr/src/debug/optee-os-stm32mp/4.0.0-stm32mp-r1/lib/libutee/tee_api_objects.c:96
    1b28:	52800000 	mov	w0, #0x0                   	// #0
/usr/src/debug/optee-os-stm32mp/4.0.0-stm32mp-r1/lib/libutee/tee_api_objects.c:97
    1b2c:	2900fe7f 	stp	wzr, wzr, [x19, #4]
/usr/src/debug/optee-os-stm32mp/4.0.0-stm32mp-r1/lib/libutee/tee_api_objects.c:99
    1b30:	2901fe7f 	stp	wzr, wzr, [x19, #12]
/usr/src/debug/optee-os-stm32mp/4.0.0-stm32mp-r1/lib/libutee/tee_api_objects.c:100
    1b34:	b900167f 	str	wzr, [x19, #20]
/usr/src/debug/optee-os-stm32mp/4.0.0-stm32mp-r1/lib/libutee/tee_api_objects.c:111
    1b38:	b00000c1 	adrp	x1, 1a000 <_DYNAMIC>
/usr/src/debug/optee-os-stm32mp/4.0.0-stm32mp-r1/lib/libutee/tee_api_objects.c:101
    1b3c:	b9001a60 	str	w0, [x19, #24]
/usr/src/debug/optee-os-stm32mp/4.0.0-stm32mp-r1/lib/libutee/tee_api_objects.c:111
    1b40:	f9409821 	ldr	x1, [x1, #304]
    1b44:	f94017e0 	ldr	x0, [sp, #40]
    1b48:	f9400022 	ldr	x2, [x1]
    1b4c:	eb020000 	subs	x0, x0, x2
    1b50:	d2800002 	mov	x2, #0x0                   	// #0
    1b54:	540001e0 	b.eq	1b90 <__GP11_TEE_GetObjectInfo+0xc0>  // b.none
    1b58:	97fffa9e 	bl	5d0 <__stack_chk_fail>
/usr/src/debug/optee-os-stm32mp/4.0.0-stm32mp-r1/lib/libutee/tee_api_objects.c:103
    1b5c:	b9000260 	str	w0, [x19]
/usr/src/debug/optee-os-stm32mp/4.0.0-stm32mp-r1/lib/libutee/tee_api_objects.c:104
    1b60:	b9400fe0 	ldr	w0, [sp, #12]
    1b64:	b9000660 	str	w0, [x19, #4]
/usr/src/debug/optee-os-stm32mp/4.0.0-stm32mp-r1/lib/libutee/tee_api_objects.c:105
    1b68:	b94013e0 	ldr	w0, [sp, #16]
    1b6c:	b9000a60 	str	w0, [x19, #8]
/usr/src/debug/optee-os-stm32mp/4.0.0-stm32mp-r1/lib/libutee/tee_api_objects.c:106
    1b70:	b94017e0 	ldr	w0, [sp, #20]
    1b74:	b9000e60 	str	w0, [x19, #12]
/usr/src/debug/optee-os-stm32mp/4.0.0-stm32mp-r1/lib/libutee/tee_api_objects.c:107
    1b78:	b9401be0 	ldr	w0, [sp, #24]
    1b7c:	b9001260 	str	w0, [x19, #16]
/usr/src/debug/optee-os-stm32mp/4.0.0-stm32mp-r1/lib/libutee/tee_api_objects.c:108
    1b80:	b9401fe0 	ldr	w0, [sp, #28]
    1b84:	b9001660 	str	w0, [x19, #20]
/usr/src/debug/optee-os-stm32mp/4.0.0-stm32mp-r1/lib/libutee/tee_api_objects.c:109
    1b88:	b94023e0 	ldr	w0, [sp, #32]
    1b8c:	17ffffeb 	b	1b38 <__GP11_TEE_GetObjectInfo+0x68>
/usr/src/debug/optee-os-stm32mp/4.0.0-stm32mp-r1/lib/libutee/tee_api_objects.c:111
    1b90:	a9437bfd 	ldp	x29, x30, [sp, #48]
    1b94:	f94023f3 	ldr	x19, [sp, #64]
    1b98:	910143ff 	add	sp, sp, #0x50
    1b9c:	d65f03c0 	ret

0000000000001ba0 <TEE_GetObjectInfo1>:
TEE_GetObjectInfo1():
/usr/src/debug/optee-os-stm32mp/4.0.0-stm32mp-r1/lib/libutee/tee_api_objects.c:115
    1ba0:	d10143ff 	sub	sp, sp, #0x50
    1ba4:	b00000c2 	adrp	x2, 1a000 <_DYNAMIC>
    1ba8:	a9037bfd 	stp	x29, x30, [sp, #48]
    1bac:	9100c3fd 	add	x29, sp, #0x30
    1bb0:	f9409842 	ldr	x2, [x2, #304]
    1bb4:	a90453f3 	stp	x19, x20, [sp, #64]
    1bb8:	aa0103f3 	mov	x19, x1
    1bbc:	f9400041 	ldr	x1, [x2]
    1bc0:	f90017e1 	str	x1, [sp, #40]
    1bc4:	d2800001 	mov	x1, #0x0                   	// #0
/usr/src/debug/optee-os-stm32mp/4.0.0-stm32mp-r1/lib/libutee/tee_api_objects.c:116
    1bc8:	a900ffff 	stp	xzr, xzr, [sp, #8]
/usr/src/debug/optee-os-stm32mp/4.0.0-stm32mp-r1/lib/libutee/tee_api_objects.c:119
    1bcc:	910023e1 	add	x1, sp, #0x8
/usr/src/debug/optee-os-stm32mp/4.0.0-stm32mp-r1/lib/libutee/tee_api_objects.c:116
    1bd0:	f9000fff 	str	xzr, [sp, #24]
    1bd4:	b90023ff 	str	wzr, [sp, #32]
/usr/src/debug/optee-os-stm32mp/4.0.0-stm32mp-r1/lib/libutee/tee_api_objects.c:119
    1bd8:	940019c4 	bl	82e8 <_utee_cryp_obj_get_info>
/usr/src/debug/optee-os-stm32mp/4.0.0-stm32mp-r1/lib/libutee/tee_api_objects.c:121
    1bdc:	52800021 	mov	w1, #0x1                   	// #1
/usr/src/debug/optee-os-stm32mp/4.0.0-stm32mp-r1/lib/libutee/tee_api_objects.c:122
    1be0:	121e7802 	and	w2, w0, #0xfffffffd
/usr/src/debug/optee-os-stm32mp/4.0.0-stm32mp-r1/lib/libutee/tee_api_objects.c:121
    1be4:	7100001f 	cmp	w0, #0x0
    1be8:	72be0201 	movk	w1, #0xf010, lsl #16
/usr/src/debug/optee-os-stm32mp/4.0.0-stm32mp-r1/lib/libutee/tee_api_objects.c:119
    1bec:	2a0003f4 	mov	w20, w0
/usr/src/debug/optee-os-stm32mp/4.0.0-stm32mp-r1/lib/libutee/tee_api_objects.c:121
    1bf0:	7a411044 	ccmp	w2, w1, #0x4, ne	// ne = any
    1bf4:	54000040 	b.eq	1bfc <TEE_GetObjectInfo1+0x5c>  // b.none
/usr/src/debug/optee-os-stm32mp/4.0.0-stm32mp-r1/lib/libutee/tee_api_objects.c:124
    1bf8:	94001734 	bl	78c8 <TEE_Panic>
/usr/src/debug/optee-os-stm32mp/4.0.0-stm32mp-r1/lib/libutee/tee_api_objects.c:126
    1bfc:	f94007e0 	ldr	x0, [sp, #8]
    1c00:	f9000260 	str	x0, [x19]
/usr/src/debug/optee-os-stm32mp/4.0.0-stm32mp-r1/lib/libutee/tee_api_objects.c:128
    1c04:	f9400be0 	ldr	x0, [sp, #16]
/usr/src/debug/optee-os-stm32mp/4.0.0-stm32mp-r1/lib/libutee/tee_api_objects.c:135
    1c08:	b00000c2 	adrp	x2, 1a000 <_DYNAMIC>
/usr/src/debug/optee-os-stm32mp/4.0.0-stm32mp-r1/lib/libutee/tee_api_objects.c:128
    1c0c:	f9000660 	str	x0, [x19, #8]
/usr/src/debug/optee-os-stm32mp/4.0.0-stm32mp-r1/lib/libutee/tee_api_objects.c:130
    1c10:	b9401be0 	ldr	w0, [sp, #24]
    1c14:	f9000a60 	str	x0, [x19, #16]
/usr/src/debug/optee-os-stm32mp/4.0.0-stm32mp-r1/lib/libutee/tee_api_objects.c:131
    1c18:	b9401fe0 	ldr	w0, [sp, #28]
/usr/src/debug/optee-os-stm32mp/4.0.0-stm32mp-r1/lib/libutee/tee_api_objects.c:135
    1c1c:	f9409842 	ldr	x2, [x2, #304]
/usr/src/debug/optee-os-stm32mp/4.0.0-stm32mp-r1/lib/libutee/tee_api_objects.c:131
    1c20:	f9000e60 	str	x0, [x19, #24]
/usr/src/debug/optee-os-stm32mp/4.0.0-stm32mp-r1/lib/libutee/tee_api_objects.c:132
    1c24:	b94023e0 	ldr	w0, [sp, #32]
    1c28:	b9002260 	str	w0, [x19, #32]
/usr/src/debug/optee-os-stm32mp/4.0.0-stm32mp-r1/lib/libutee/tee_api_objects.c:135
    1c2c:	f94017e0 	ldr	x0, [sp, #40]
    1c30:	f9400041 	ldr	x1, [x2]
    1c34:	eb010000 	subs	x0, x0, x1
    1c38:	d2800001 	mov	x1, #0x0                   	// #0
    1c3c:	54000040 	b.eq	1c44 <TEE_GetObjectInfo1+0xa4>  // b.none
    1c40:	97fffa64 	bl	5d0 <__stack_chk_fail>
    1c44:	a9437bfd 	ldp	x29, x30, [sp, #48]
    1c48:	2a1403e0 	mov	w0, w20
    1c4c:	a94453f3 	ldp	x19, x20, [sp, #64]
    1c50:	910143ff 	add	sp, sp, #0x50
    1c54:	d65f03c0 	ret

0000000000001c58 <__GP11_TEE_GetObjectInfo1>:
__GP11_TEE_GetObjectInfo1():
/usr/src/debug/optee-os-stm32mp/4.0.0-stm32mp-r1/lib/libutee/tee_api_objects.c:139
    1c58:	d10143ff 	sub	sp, sp, #0x50
    1c5c:	a9037bfd 	stp	x29, x30, [sp, #48]
    1c60:	9100c3fd 	add	x29, sp, #0x30
    1c64:	a90453f3 	stp	x19, x20, [sp, #64]
    1c68:	aa0103f3 	mov	x19, x1
    1c6c:	b00000c1 	adrp	x1, 1a000 <_DYNAMIC>
    1c70:	f9409821 	ldr	x1, [x1, #304]
    1c74:	f9400022 	ldr	x2, [x1]
    1c78:	f90017e2 	str	x2, [sp, #40]
    1c7c:	d2800002 	mov	x2, #0x0                   	// #0
/usr/src/debug/optee-os-stm32mp/4.0.0-stm32mp-r1/lib/libutee/tee_api_objects.c:143
    1c80:	910023e1 	add	x1, sp, #0x8
/usr/src/debug/optee-os-stm32mp/4.0.0-stm32mp-r1/lib/libutee/tee_api_objects.c:140
    1c84:	a900ffff 	stp	xzr, xzr, [sp, #8]
    1c88:	f9000fff 	str	xzr, [sp, #24]
    1c8c:	b90023ff 	str	wzr, [sp, #32]
/usr/src/debug/optee-os-stm32mp/4.0.0-stm32mp-r1/lib/libutee/tee_api_objects.c:143
    1c90:	94001996 	bl	82e8 <_utee_cryp_obj_get_info>
/usr/src/debug/optee-os-stm32mp/4.0.0-stm32mp-r1/lib/libutee/tee_api_objects.c:145
    1c94:	52800021 	mov	w1, #0x1                   	// #1
/usr/src/debug/optee-os-stm32mp/4.0.0-stm32mp-r1/lib/libutee/tee_api_objects.c:146
    1c98:	121e7802 	and	w2, w0, #0xfffffffd
/usr/src/debug/optee-os-stm32mp/4.0.0-stm32mp-r1/lib/libutee/tee_api_objects.c:145
    1c9c:	7100001f 	cmp	w0, #0x0
    1ca0:	72be0201 	movk	w1, #0xf010, lsl #16
/usr/src/debug/optee-os-stm32mp/4.0.0-stm32mp-r1/lib/libutee/tee_api_objects.c:143
    1ca4:	2a0003f4 	mov	w20, w0
/usr/src/debug/optee-os-stm32mp/4.0.0-stm32mp-r1/lib/libutee/tee_api_objects.c:145
    1ca8:	7a411044 	ccmp	w2, w1, #0x4, ne	// ne = any
    1cac:	54000040 	b.eq	1cb4 <__GP11_TEE_GetObjectInfo1+0x5c>  // b.none
/usr/src/debug/optee-os-stm32mp/4.0.0-stm32mp-r1/lib/libutee/tee_api_objects.c:148
    1cb0:	94001706 	bl	78c8 <TEE_Panic>
/usr/src/debug/optee-os-stm32mp/4.0.0-stm32mp-r1/lib/libutee/tee_api_objects.c:150
    1cb4:	b9400be0 	ldr	w0, [sp, #8]
/usr/src/debug/optee-os-stm32mp/4.0.0-stm32mp-r1/lib/libutee/tee_api_objects.c:159
    1cb8:	b00000c1 	adrp	x1, 1a000 <_DYNAMIC>
/usr/src/debug/optee-os-stm32mp/4.0.0-stm32mp-r1/lib/libutee/tee_api_objects.c:150
    1cbc:	b9000260 	str	w0, [x19]
/usr/src/debug/optee-os-stm32mp/4.0.0-stm32mp-r1/lib/libutee/tee_api_objects.c:151
    1cc0:	b9400fe0 	ldr	w0, [sp, #12]
    1cc4:	b9000660 	str	w0, [x19, #4]
/usr/src/debug/optee-os-stm32mp/4.0.0-stm32mp-r1/lib/libutee/tee_api_objects.c:152
    1cc8:	b94013e0 	ldr	w0, [sp, #16]
    1ccc:	b9000a60 	str	w0, [x19, #8]
/usr/src/debug/optee-os-stm32mp/4.0.0-stm32mp-r1/lib/libutee/tee_api_objects.c:153
    1cd0:	b94017e0 	ldr	w0, [sp, #20]
    1cd4:	b9000e60 	str	w0, [x19, #12]
/usr/src/debug/optee-os-stm32mp/4.0.0-stm32mp-r1/lib/libutee/tee_api_objects.c:154
    1cd8:	b9401be0 	ldr	w0, [sp, #24]
    1cdc:	b9001260 	str	w0, [x19, #16]
/usr/src/debug/optee-os-stm32mp/4.0.0-stm32mp-r1/lib/libutee/tee_api_objects.c:155
    1ce0:	b9401fe0 	ldr	w0, [sp, #28]
/usr/src/debug/optee-os-stm32mp/4.0.0-stm32mp-r1/lib/libutee/tee_api_objects.c:159
    1ce4:	f9409821 	ldr	x1, [x1, #304]
/usr/src/debug/optee-os-stm32mp/4.0.0-stm32mp-r1/lib/libutee/tee_api_objects.c:155
    1ce8:	b9001660 	str	w0, [x19, #20]
/usr/src/debug/optee-os-stm32mp/4.0.0-stm32mp-r1/lib/libutee/tee_api_objects.c:156
    1cec:	b94023e0 	ldr	w0, [sp, #32]
    1cf0:	b9001a60 	str	w0, [x19, #24]
/usr/src/debug/optee-os-stm32mp/4.0.0-stm32mp-r1/lib/libutee/tee_api_objects.c:159
    1cf4:	f94017e0 	ldr	x0, [sp, #40]
    1cf8:	f9400022 	ldr	x2, [x1]
    1cfc:	eb020000 	subs	x0, x0, x2
    1d00:	d2800002 	mov	x2, #0x0                   	// #0
    1d04:	54000040 	b.eq	1d0c <__GP11_TEE_GetObjectInfo1+0xb4>  // b.none
    1d08:	97fffa32 	bl	5d0 <__stack_chk_fail>
    1d0c:	a9437bfd 	ldp	x29, x30, [sp, #48]
    1d10:	2a1403e0 	mov	w0, w20
    1d14:	a94453f3 	ldp	x19, x20, [sp, #64]
    1d18:	910143ff 	add	sp, sp, #0x50
    1d1c:	d65f03c0 	ret

0000000000001d20 <TEE_RestrictObjectUsage1>:
TEE_RestrictObjectUsage1():
/usr/src/debug/optee-os-stm32mp/4.0.0-stm32mp-r1/lib/libutee/tee_api_objects.c:183
    1d20:	a9be7bfd 	stp	x29, x30, [sp, #-32]!
/usr/src/debug/optee-os-stm32mp/4.0.0-stm32mp-r1/lib/libutee/tee_api_objects.c:186
    1d24:	2a0103e1 	mov	w1, w1
/usr/src/debug/optee-os-stm32mp/4.0.0-stm32mp-r1/lib/libutee/tee_api_objects.c:183
    1d28:	910003fd 	mov	x29, sp
    1d2c:	f9000bf3 	str	x19, [sp, #16]
/usr/src/debug/optee-os-stm32mp/4.0.0-stm32mp-r1/lib/libutee/tee_api_objects.c:186
    1d30:	94001971 	bl	82f4 <_utee_cryp_obj_restrict_usage>
/usr/src/debug/optee-os-stm32mp/4.0.0-stm32mp-r1/lib/libutee/tee_api_objects.c:189
    1d34:	52800021 	mov	w1, #0x1                   	// #1
/usr/src/debug/optee-os-stm32mp/4.0.0-stm32mp-r1/lib/libutee/tee_api_objects.c:190
    1d38:	121e7802 	and	w2, w0, #0xfffffffd
/usr/src/debug/optee-os-stm32mp/4.0.0-stm32mp-r1/lib/libutee/tee_api_objects.c:189
    1d3c:	7100001f 	cmp	w0, #0x0
    1d40:	72be0201 	movk	w1, #0xf010, lsl #16
/usr/src/debug/optee-os-stm32mp/4.0.0-stm32mp-r1/lib/libutee/tee_api_objects.c:186
    1d44:	2a0003f3 	mov	w19, w0
/usr/src/debug/optee-os-stm32mp/4.0.0-stm32mp-r1/lib/libutee/tee_api_objects.c:189
    1d48:	7a411044 	ccmp	w2, w1, #0x4, ne	// ne = any
    1d4c:	54000040 	b.eq	1d54 <TEE_RestrictObjectUsage1+0x34>  // b.none
/usr/src/debug/optee-os-stm32mp/4.0.0-stm32mp-r1/lib/libutee/tee_api_objects.c:192
    1d50:	940016de 	bl	78c8 <TEE_Panic>
/usr/src/debug/optee-os-stm32mp/4.0.0-stm32mp-r1/lib/libutee/tee_api_objects.c:195
    1d54:	2a1303e0 	mov	w0, w19
    1d58:	f9400bf3 	ldr	x19, [sp, #16]
    1d5c:	a8c27bfd 	ldp	x29, x30, [sp], #32
    1d60:	d65f03c0 	ret

0000000000001d64 <TEE_RestrictObjectUsage>:
TEE_RestrictObjectUsage():
/usr/src/debug/optee-os-stm32mp/4.0.0-stm32mp-r1/lib/libutee/tee_api_objects.c:168
    1d64:	d10143ff 	sub	sp, sp, #0x50
    1d68:	b00000c2 	adrp	x2, 1a000 <_DYNAMIC>
    1d6c:	a9037bfd 	stp	x29, x30, [sp, #48]
    1d70:	9100c3fd 	add	x29, sp, #0x30
    1d74:	f9409842 	ldr	x2, [x2, #304]
    1d78:	a90453f3 	stp	x19, x20, [sp, #64]
    1d7c:	2a0103f4 	mov	w20, w1
    1d80:	f9400041 	ldr	x1, [x2]
    1d84:	f90017e1 	str	x1, [sp, #40]
    1d88:	d2800001 	mov	x1, #0x0                   	// #0
    1d8c:	aa0003f3 	mov	x19, x0
/usr/src/debug/optee-os-stm32mp/4.0.0-stm32mp-r1/lib/libutee/tee_api_objects.c:172
    1d90:	910023e1 	add	x1, sp, #0x8
/usr/src/debug/optee-os-stm32mp/4.0.0-stm32mp-r1/lib/libutee/tee_api_objects.c:169
    1d94:	a900ffff 	stp	xzr, xzr, [sp, #8]
    1d98:	f9000fff 	str	xzr, [sp, #24]
    1d9c:	b90023ff 	str	wzr, [sp, #32]
/usr/src/debug/optee-os-stm32mp/4.0.0-stm32mp-r1/lib/libutee/tee_api_objects.c:172
    1da0:	94001952 	bl	82e8 <_utee_cryp_obj_get_info>
/usr/src/debug/optee-os-stm32mp/4.0.0-stm32mp-r1/lib/libutee/tee_api_objects.c:173
    1da4:	b9400be1 	ldr	w1, [sp, #8]
    1da8:	528017c0 	mov	w0, #0xbe                  	// #190
    1dac:	72b40000 	movk	w0, #0xa000, lsl #16
    1db0:	6b00003f 	cmp	w1, w0
    1db4:	540000c0 	b.eq	1dcc <TEE_RestrictObjectUsage+0x68>  // b.none
/usr/src/debug/optee-os-stm32mp/4.0.0-stm32mp-r1/lib/libutee/tee_api_objects.c:176
    1db8:	2a1403e1 	mov	w1, w20
    1dbc:	aa1303e0 	mov	x0, x19
    1dc0:	97ffffd8 	bl	1d20 <TEE_RestrictObjectUsage1>
/usr/src/debug/optee-os-stm32mp/4.0.0-stm32mp-r1/lib/libutee/tee_api_objects.c:178
    1dc4:	34000040 	cbz	w0, 1dcc <TEE_RestrictObjectUsage+0x68>
/usr/src/debug/optee-os-stm32mp/4.0.0-stm32mp-r1/lib/libutee/tee_api_objects.c:179
    1dc8:	940016c0 	bl	78c8 <TEE_Panic>
/usr/src/debug/optee-os-stm32mp/4.0.0-stm32mp-r1/lib/libutee/tee_api_objects.c:180
    1dcc:	b00000c2 	adrp	x2, 1a000 <_DYNAMIC>
    1dd0:	f9409842 	ldr	x2, [x2, #304]
    1dd4:	f94017e0 	ldr	x0, [sp, #40]
    1dd8:	f9400041 	ldr	x1, [x2]
    1ddc:	eb010000 	subs	x0, x0, x1
    1de0:	d2800001 	mov	x1, #0x0                   	// #0
    1de4:	54000040 	b.eq	1dec <TEE_RestrictObjectUsage+0x88>  // b.none
    1de8:	97fff9fa 	bl	5d0 <__stack_chk_fail>
    1dec:	a9437bfd 	ldp	x29, x30, [sp, #48]
    1df0:	a94453f3 	ldp	x19, x20, [sp, #64]
    1df4:	910143ff 	add	sp, sp, #0x50
    1df8:	d65f03c0 	ret

0000000000001dfc <TEE_GetObjectBufferAttribute>:
TEE_GetObjectBufferAttribute():
/usr/src/debug/optee-os-stm32mp/4.0.0-stm32mp-r1/lib/libutee/tee_api_objects.c:200
    1dfc:	d101c3ff 	sub	sp, sp, #0x70
    1e00:	b00000c4 	adrp	x4, 1a000 <_DYNAMIC>
    1e04:	a9037bfd 	stp	x29, x30, [sp, #48]
    1e08:	9100c3fd 	add	x29, sp, #0x30
    1e0c:	f9409884 	ldr	x4, [x4, #304]
    1e10:	a90453f3 	stp	x19, x20, [sp, #64]
    1e14:	aa0303f4 	mov	x20, x3
    1e18:	a9055bf5 	stp	x21, x22, [sp, #80]
    1e1c:	aa0003f5 	mov	x21, x0
    1e20:	2a0103f6 	mov	w22, w1
    1e24:	f90033f7 	str	x23, [sp, #96]
/usr/src/debug/optee-os-stm32mp/4.0.0-stm32mp-r1/lib/libutee/tee_api_objects.c:205
    1e28:	d2800101 	mov	x1, #0x8                   	// #8
/usr/src/debug/optee-os-stm32mp/4.0.0-stm32mp-r1/lib/libutee/tee_api_objects.c:200
    1e2c:	aa0203f7 	mov	x23, x2
    1e30:	f9400080 	ldr	x0, [x4]
    1e34:	f90017e0 	str	x0, [sp, #40]
    1e38:	d2800000 	mov	x0, #0x0                   	// #0
/usr/src/debug/optee-os-stm32mp/4.0.0-stm32mp-r1/lib/libutee/tee_api_objects.c:201
    1e3c:	a9007fff 	stp	xzr, xzr, [sp]
/usr/src/debug/optee-os-stm32mp/4.0.0-stm32mp-r1/lib/libutee/tee_api_objects.c:205
    1e40:	aa0303e0 	mov	x0, x3
/usr/src/debug/optee-os-stm32mp/4.0.0-stm32mp-r1/lib/libutee/tee_api_objects.c:201
    1e44:	a9017fff 	stp	xzr, xzr, [sp, #16]
    1e48:	b90023ff 	str	wzr, [sp, #32]
/usr/src/debug/optee-os-stm32mp/4.0.0-stm32mp-r1/lib/libutee/tee_api_objects.c:205
    1e4c:	940016fb 	bl	7a38 <__utee_check_inout_annotation>
/usr/src/debug/optee-os-stm32mp/4.0.0-stm32mp-r1/lib/libutee/tee_api_objects.c:207
    1e50:	910023e1 	add	x1, sp, #0x8
    1e54:	aa1503e0 	mov	x0, x21
    1e58:	94001924 	bl	82e8 <_utee_cryp_obj_get_info>
    1e5c:	2a0003f3 	mov	w19, w0
/usr/src/debug/optee-os-stm32mp/4.0.0-stm32mp-r1/lib/libutee/tee_api_objects.c:208
    1e60:	35000180 	cbnz	w0, 1e90 <TEE_GetObjectBufferAttribute+0x94>
/usr/src/debug/optee-os-stm32mp/4.0.0-stm32mp-r1/lib/libutee/tee_api_objects.c:212
    1e64:	37e80416 	tbnz	w22, #29, 1ee4 <TEE_GetObjectBufferAttribute+0xe8>
/usr/src/debug/optee-os-stm32mp/4.0.0-stm32mp-r1/lib/libutee/tee_api_objects.c:217
    1e68:	f9400280 	ldr	x0, [x20]
/usr/src/debug/optee-os-stm32mp/4.0.0-stm32mp-r1/lib/libutee/tee_api_objects.c:218
    1e6c:	910003e3 	mov	x3, sp
    1e70:	aa1703e2 	mov	x2, x23
    1e74:	2a1603e1 	mov	w1, w22
/usr/src/debug/optee-os-stm32mp/4.0.0-stm32mp-r1/lib/libutee/tee_api_objects.c:217
    1e78:	f90003e0 	str	x0, [sp]
/usr/src/debug/optee-os-stm32mp/4.0.0-stm32mp-r1/lib/libutee/tee_api_objects.c:218
    1e7c:	aa1503e0 	mov	x0, x21
    1e80:	94001920 	bl	8300 <_utee_cryp_obj_get_attr>
    1e84:	2a0003f3 	mov	w19, w0
/usr/src/debug/optee-os-stm32mp/4.0.0-stm32mp-r1/lib/libutee/tee_api_objects.c:220
    1e88:	f94003e0 	ldr	x0, [sp]
    1e8c:	f9000280 	str	x0, [x20]
/usr/src/debug/optee-os-stm32mp/4.0.0-stm32mp-r1/lib/libutee/tee_api_objects.c:223
    1e90:	7100027f 	cmp	w19, #0x0
    1e94:	129ffee0 	mov	w0, #0xffff0008            	// #-65528
    1e98:	7a401264 	ccmp	w19, w0, #0x4, ne	// ne = any
    1e9c:	54000140 	b.eq	1ec4 <TEE_GetObjectBufferAttribute+0xc8>  // b.none
/usr/src/debug/optee-os-stm32mp/4.0.0-stm32mp-r1/lib/libutee/tee_api_objects.c:226
    1ea0:	121e7a61 	and	w1, w19, #0xfffffffd
/usr/src/debug/optee-os-stm32mp/4.0.0-stm32mp-r1/lib/libutee/tee_api_objects.c:225
    1ea4:	52800020 	mov	w0, #0x1                   	// #1
    1ea8:	72be0200 	movk	w0, #0xf010, lsl #16
    1eac:	6b00003f 	cmp	w1, w0
    1eb0:	129ffde0 	mov	w0, #0xffff0010            	// #-65520
    1eb4:	7a401264 	ccmp	w19, w0, #0x4, ne	// ne = any
    1eb8:	54000060 	b.eq	1ec4 <TEE_GetObjectBufferAttribute+0xc8>  // b.none
/usr/src/debug/optee-os-stm32mp/4.0.0-stm32mp-r1/lib/libutee/tee_api_objects.c:228
    1ebc:	2a1303e0 	mov	w0, w19
    1ec0:	94001682 	bl	78c8 <TEE_Panic>
/usr/src/debug/optee-os-stm32mp/4.0.0-stm32mp-r1/lib/libutee/tee_api_objects.c:231
    1ec4:	b00000c4 	adrp	x4, 1a000 <_DYNAMIC>
    1ec8:	f9409884 	ldr	x4, [x4, #304]
    1ecc:	f94017e0 	ldr	x0, [sp, #40]
    1ed0:	f9400081 	ldr	x1, [x4]
    1ed4:	eb010000 	subs	x0, x0, x1
    1ed8:	d2800001 	mov	x1, #0x0                   	// #0
    1edc:	54000080 	b.eq	1eec <TEE_GetObjectBufferAttribute+0xf0>  // b.none
    1ee0:	97fff9bc 	bl	5d0 <__stack_chk_fail>
/usr/src/debug/optee-os-stm32mp/4.0.0-stm32mp-r1/lib/libutee/tee_api_objects.c:213
    1ee4:	129fff33 	mov	w19, #0xffff0006            	// #-65530
    1ee8:	17ffffea 	b	1e90 <TEE_GetObjectBufferAttribute+0x94>
/usr/src/debug/optee-os-stm32mp/4.0.0-stm32mp-r1/lib/libutee/tee_api_objects.c:231
    1eec:	a9437bfd 	ldp	x29, x30, [sp, #48]
    1ef0:	2a1303e0 	mov	w0, w19
    1ef4:	a94453f3 	ldp	x19, x20, [sp, #64]
    1ef8:	a9455bf5 	ldp	x21, x22, [sp, #80]
    1efc:	f94033f7 	ldr	x23, [sp, #96]
    1f00:	9101c3ff 	add	sp, sp, #0x70
    1f04:	d65f03c0 	ret

0000000000001f08 <__GP11_TEE_GetObjectBufferAttribute>:
__GP11_TEE_GetObjectBufferAttribute():
/usr/src/debug/optee-os-stm32mp/4.0.0-stm32mp-r1/lib/libutee/tee_api_objects.c:236
    1f08:	d10143ff 	sub	sp, sp, #0x50
    1f0c:	a9017bfd 	stp	x29, x30, [sp, #16]
    1f10:	910043fd 	add	x29, sp, #0x10
    1f14:	a90253f3 	stp	x19, x20, [sp, #32]
    1f18:	b00000d4 	adrp	x20, 1a000 <_DYNAMIC>
    1f1c:	aa0303f3 	mov	x19, x3
    1f20:	a9035bf5 	stp	x21, x22, [sp, #48]
    1f24:	aa0003f5 	mov	x21, x0
    1f28:	2a0103f6 	mov	w22, w1
    1f2c:	f9409a80 	ldr	x0, [x20, #304]
    1f30:	f90023f7 	str	x23, [sp, #64]
    1f34:	aa0203f7 	mov	x23, x2
    1f38:	f9400001 	ldr	x1, [x0]
    1f3c:	f90007e1 	str	x1, [sp, #8]
    1f40:	d2800001 	mov	x1, #0x0                   	// #0
/usr/src/debug/optee-os-stm32mp/4.0.0-stm32mp-r1/lib/libutee/tee_api_objects.c:240
    1f44:	aa0303e0 	mov	x0, x3
    1f48:	d2800081 	mov	x1, #0x4                   	// #4
/usr/src/debug/optee-os-stm32mp/4.0.0-stm32mp-r1/lib/libutee/tee_api_objects.c:238
    1f4c:	f90003ff 	str	xzr, [sp]
/usr/src/debug/optee-os-stm32mp/4.0.0-stm32mp-r1/lib/libutee/tee_api_objects.c:240
    1f50:	940016ba 	bl	7a38 <__utee_check_inout_annotation>
/usr/src/debug/optee-os-stm32mp/4.0.0-stm32mp-r1/lib/libutee/tee_api_objects.c:241
    1f54:	b9400260 	ldr	w0, [x19]
/usr/src/debug/optee-os-stm32mp/4.0.0-stm32mp-r1/lib/libutee/tee_api_objects.c:242
    1f58:	aa1703e2 	mov	x2, x23
    1f5c:	2a1603e1 	mov	w1, w22
    1f60:	910003e3 	mov	x3, sp
/usr/src/debug/optee-os-stm32mp/4.0.0-stm32mp-r1/lib/libutee/tee_api_objects.c:241
    1f64:	f90003e0 	str	x0, [sp]
/usr/src/debug/optee-os-stm32mp/4.0.0-stm32mp-r1/lib/libutee/tee_api_objects.c:242
    1f68:	aa1503e0 	mov	x0, x21
    1f6c:	97ffffa4 	bl	1dfc <TEE_GetObjectBufferAttribute>
/usr/src/debug/optee-os-stm32mp/4.0.0-stm32mp-r1/lib/libutee/tee_api_objects.c:243
    1f70:	f94003e1 	ldr	x1, [sp]
    1f74:	b9000261 	str	w1, [x19]
/usr/src/debug/optee-os-stm32mp/4.0.0-stm32mp-r1/lib/libutee/tee_api_objects.c:245
    1f78:	f9409a94 	ldr	x20, [x20, #304]
    1f7c:	f94007e1 	ldr	x1, [sp, #8]
    1f80:	f9400282 	ldr	x2, [x20]
    1f84:	eb020021 	subs	x1, x1, x2
    1f88:	d2800002 	mov	x2, #0x0                   	// #0
    1f8c:	54000040 	b.eq	1f94 <__GP11_TEE_GetObjectBufferAttribute+0x8c>  // b.none
    1f90:	97fff990 	bl	5d0 <__stack_chk_fail>
    1f94:	a9417bfd 	ldp	x29, x30, [sp, #16]
    1f98:	a94253f3 	ldp	x19, x20, [sp, #32]
    1f9c:	a9435bf5 	ldp	x21, x22, [sp, #48]
    1fa0:	f94023f7 	ldr	x23, [sp, #64]
    1fa4:	910143ff 	add	sp, sp, #0x50
    1fa8:	d65f03c0 	ret

0000000000001fac <TEE_GetObjectValueAttribute>:
TEE_GetObjectValueAttribute():
/usr/src/debug/optee-os-stm32mp/4.0.0-stm32mp-r1/lib/libutee/tee_api_objects.c:250
    1fac:	d10203ff 	sub	sp, sp, #0x80
    1fb0:	b00000c4 	adrp	x4, 1a000 <_DYNAMIC>
    1fb4:	a9047bfd 	stp	x29, x30, [sp, #64]
    1fb8:	910103fd 	add	x29, sp, #0x40
    1fbc:	f9409884 	ldr	x4, [x4, #304]
    1fc0:	a90553f3 	stp	x19, x20, [sp, #80]
    1fc4:	aa0303f4 	mov	x20, x3
    1fc8:	a9065bf5 	stp	x21, x22, [sp, #96]
    1fcc:	aa0003f6 	mov	x22, x0
    1fd0:	aa0203f5 	mov	x21, x2
    1fd4:	f9003bf7 	str	x23, [sp, #112]
    1fd8:	2a0103f7 	mov	w23, w1
    1fdc:	f9400080 	ldr	x0, [x4]
    1fe0:	f9001fe0 	str	x0, [sp, #56]
    1fe4:	d2800000 	mov	x0, #0x0                   	// #0
/usr/src/debug/optee-os-stm32mp/4.0.0-stm32mp-r1/lib/libutee/tee_api_objects.c:251
    1fe8:	a9017fff 	stp	xzr, xzr, [sp, #16]
/usr/src/debug/optee-os-stm32mp/4.0.0-stm32mp-r1/lib/libutee/tee_api_objects.c:254
    1fec:	d2800100 	mov	x0, #0x8                   	// #8
    1ff0:	f90007e0 	str	x0, [sp, #8]
/usr/src/debug/optee-os-stm32mp/4.0.0-stm32mp-r1/lib/libutee/tee_api_objects.c:251
    1ff4:	f90013ff 	str	xzr, [sp, #32]
    1ff8:	b9002bff 	str	wzr, [sp, #40]
/usr/src/debug/optee-os-stm32mp/4.0.0-stm32mp-r1/lib/libutee/tee_api_objects.c:256
    1ffc:	b4000082 	cbz	x2, 200c <TEE_GetObjectValueAttribute+0x60>
/usr/src/debug/optee-os-stm32mp/4.0.0-stm32mp-r1/lib/libutee/tee_api_objects.c:257
    2000:	aa0203e0 	mov	x0, x2
    2004:	d2800081 	mov	x1, #0x4                   	// #4
    2008:	94001674 	bl	79d8 <__utee_check_out_annotation>
/usr/src/debug/optee-os-stm32mp/4.0.0-stm32mp-r1/lib/libutee/tee_api_objects.c:258
    200c:	b4000094 	cbz	x20, 201c <TEE_GetObjectValueAttribute+0x70>
/usr/src/debug/optee-os-stm32mp/4.0.0-stm32mp-r1/lib/libutee/tee_api_objects.c:259
    2010:	aa1403e0 	mov	x0, x20
    2014:	d2800081 	mov	x1, #0x4                   	// #4
    2018:	94001670 	bl	79d8 <__utee_check_out_annotation>
/usr/src/debug/optee-os-stm32mp/4.0.0-stm32mp-r1/lib/libutee/tee_api_objects.c:261
    201c:	910043e1 	add	x1, sp, #0x10
    2020:	aa1603e0 	mov	x0, x22
    2024:	940018b1 	bl	82e8 <_utee_cryp_obj_get_info>
    2028:	2a0003f3 	mov	w19, w0
/usr/src/debug/optee-os-stm32mp/4.0.0-stm32mp-r1/lib/libutee/tee_api_objects.c:262
    202c:	35000100 	cbnz	w0, 204c <TEE_GetObjectValueAttribute+0xa0>
/usr/src/debug/optee-os-stm32mp/4.0.0-stm32mp-r1/lib/libutee/tee_api_objects.c:266
    2030:	36e804d7 	tbz	w23, #29, 20c8 <TEE_GetObjectValueAttribute+0x11c>
/usr/src/debug/optee-os-stm32mp/4.0.0-stm32mp-r1/lib/libutee/tee_api_objects.c:271
    2034:	910023e3 	add	x3, sp, #0x8
    2038:	9100c3e2 	add	x2, sp, #0x30
    203c:	2a1703e1 	mov	w1, w23
    2040:	aa1603e0 	mov	x0, x22
    2044:	940018af 	bl	8300 <_utee_cryp_obj_get_attr>
    2048:	2a0003f3 	mov	w19, w0
/usr/src/debug/optee-os-stm32mp/4.0.0-stm32mp-r1/lib/libutee/tee_api_objects.c:275
    204c:	7100027f 	cmp	w19, #0x0
    2050:	129ffee0 	mov	w0, #0xffff0008            	// #-65528
    2054:	7a401264 	ccmp	w19, w0, #0x4, ne	// ne = any
    2058:	54000100 	b.eq	2078 <TEE_GetObjectValueAttribute+0xcc>  // b.none
/usr/src/debug/optee-os-stm32mp/4.0.0-stm32mp-r1/lib/libutee/tee_api_objects.c:277
    205c:	52800020 	mov	w0, #0x1                   	// #1
    2060:	121e7a61 	and	w1, w19, #0xfffffffd
    2064:	72be0200 	movk	w0, #0xf010, lsl #16
    2068:	6b00003f 	cmp	w1, w0
    206c:	54000060 	b.eq	2078 <TEE_GetObjectValueAttribute+0xcc>  // b.none
/usr/src/debug/optee-os-stm32mp/4.0.0-stm32mp-r1/lib/libutee/tee_api_objects.c:279
    2070:	2a1303e0 	mov	w0, w19
    2074:	94001615 	bl	78c8 <TEE_Panic>
/usr/src/debug/optee-os-stm32mp/4.0.0-stm32mp-r1/lib/libutee/tee_api_objects.c:281
    2078:	f94007e0 	ldr	x0, [sp, #8]
    207c:	f100201f 	cmp	x0, #0x8
    2080:	54000060 	b.eq	208c <TEE_GetObjectValueAttribute+0xe0>  // b.none
/usr/src/debug/optee-os-stm32mp/4.0.0-stm32mp-r1/lib/libutee/tee_api_objects.c:282
    2084:	52800000 	mov	w0, #0x0                   	// #0
    2088:	94001610 	bl	78c8 <TEE_Panic>
/usr/src/debug/optee-os-stm32mp/4.0.0-stm32mp-r1/lib/libutee/tee_api_objects.c:284
    208c:	350000f3 	cbnz	w19, 20a8 <TEE_GetObjectValueAttribute+0xfc>
/usr/src/debug/optee-os-stm32mp/4.0.0-stm32mp-r1/lib/libutee/tee_api_objects.c:285
    2090:	b4000075 	cbz	x21, 209c <TEE_GetObjectValueAttribute+0xf0>
/usr/src/debug/optee-os-stm32mp/4.0.0-stm32mp-r1/lib/libutee/tee_api_objects.c:286
    2094:	b94033e0 	ldr	w0, [sp, #48]
    2098:	b90002a0 	str	w0, [x21]
/usr/src/debug/optee-os-stm32mp/4.0.0-stm32mp-r1/lib/libutee/tee_api_objects.c:287
    209c:	b4000074 	cbz	x20, 20a8 <TEE_GetObjectValueAttribute+0xfc>
/usr/src/debug/optee-os-stm32mp/4.0.0-stm32mp-r1/lib/libutee/tee_api_objects.c:288
    20a0:	b94037e0 	ldr	w0, [sp, #52]
    20a4:	b9000280 	str	w0, [x20]
/usr/src/debug/optee-os-stm32mp/4.0.0-stm32mp-r1/lib/libutee/tee_api_objects.c:292
    20a8:	900000c4 	adrp	x4, 1a000 <_DYNAMIC>
    20ac:	f9409884 	ldr	x4, [x4, #304]
    20b0:	f9401fe0 	ldr	x0, [sp, #56]
    20b4:	f9400081 	ldr	x1, [x4]
    20b8:	eb010000 	subs	x0, x0, x1
    20bc:	d2800001 	mov	x1, #0x0                   	// #0
    20c0:	54000080 	b.eq	20d0 <TEE_GetObjectValueAttribute+0x124>  // b.none
    20c4:	97fff943 	bl	5d0 <__stack_chk_fail>
/usr/src/debug/optee-os-stm32mp/4.0.0-stm32mp-r1/lib/libutee/tee_api_objects.c:267
    20c8:	129fff33 	mov	w19, #0xffff0006            	// #-65530
    20cc:	17ffffe0 	b	204c <TEE_GetObjectValueAttribute+0xa0>
/usr/src/debug/optee-os-stm32mp/4.0.0-stm32mp-r1/lib/libutee/tee_api_objects.c:292
    20d0:	a9447bfd 	ldp	x29, x30, [sp, #64]
    20d4:	2a1303e0 	mov	w0, w19
    20d8:	a94553f3 	ldp	x19, x20, [sp, #80]
    20dc:	a9465bf5 	ldp	x21, x22, [sp, #96]
    20e0:	f9403bf7 	ldr	x23, [sp, #112]
    20e4:	910203ff 	add	sp, sp, #0x80
    20e8:	d65f03c0 	ret

00000000000020ec <TEE_CloseObject>:
TEE_CloseObject():
/usr/src/debug/optee-os-stm32mp/4.0.0-stm32mp-r1/lib/libutee/tee_api_objects.c:298
    20ec:	b4000120 	cbz	x0, 2110 <TEE_CloseObject+0x24>
/usr/src/debug/optee-os-stm32mp/4.0.0-stm32mp-r1/lib/libutee/tee_api_objects.c:295
    20f0:	a9bf7bfd 	stp	x29, x30, [sp, #-16]!
    20f4:	910003fd 	mov	x29, sp
/usr/src/debug/optee-os-stm32mp/4.0.0-stm32mp-r1/lib/libutee/tee_api_objects.c:301
    20f8:	94001888 	bl	8318 <_utee_cryp_obj_close>
/usr/src/debug/optee-os-stm32mp/4.0.0-stm32mp-r1/lib/libutee/tee_api_objects.c:302
    20fc:	34000060 	cbz	w0, 2108 <TEE_CloseObject+0x1c>
/usr/src/debug/optee-os-stm32mp/4.0.0-stm32mp-r1/lib/libutee/tee_api_objects.c:304
    2100:	a8c17bfd 	ldp	x29, x30, [sp], #16
/usr/src/debug/optee-os-stm32mp/4.0.0-stm32mp-r1/lib/libutee/tee_api_objects.c:303
    2104:	140015f1 	b	78c8 <TEE_Panic>
/usr/src/debug/optee-os-stm32mp/4.0.0-stm32mp-r1/lib/libutee/tee_api_objects.c:304
    2108:	a8c17bfd 	ldp	x29, x30, [sp], #16
    210c:	d65f03c0 	ret
    2110:	d65f03c0 	ret

0000000000002114 <__GP11_TEE_AllocateTransientObject>:
__GP11_TEE_AllocateTransientObject():
/usr/src/debug/optee-os-stm32mp/4.0.0-stm32mp-r1/lib/libutee/tee_api_objects.c:322
    2114:	d10103ff 	sub	sp, sp, #0x40
    2118:	900000c3 	adrp	x3, 1a000 <_DYNAMIC>
    211c:	a9017bfd 	stp	x29, x30, [sp, #16]
    2120:	910043fd 	add	x29, sp, #0x10
    2124:	f9409863 	ldr	x3, [x3, #304]
    2128:	a90253f3 	stp	x19, x20, [sp, #32]
    212c:	2a0003f3 	mov	w19, w0
    2130:	f9001bf5 	str	x21, [sp, #48]
    2134:	aa0203f4 	mov	x20, x2
    2138:	2a0103f5 	mov	w21, w1
/usr/src/debug/optee-os-stm32mp/4.0.0-stm32mp-r1/lib/libutee/tee_api_objects.c:326
    213c:	d2800101 	mov	x1, #0x8                   	// #8
/usr/src/debug/optee-os-stm32mp/4.0.0-stm32mp-r1/lib/libutee/tee_api_objects.c:322
    2140:	f9400060 	ldr	x0, [x3]
    2144:	f90007e0 	str	x0, [sp, #8]
    2148:	d2800000 	mov	x0, #0x0                   	// #0
/usr/src/debug/optee-os-stm32mp/4.0.0-stm32mp-r1/lib/libutee/tee_api_objects.c:326
    214c:	aa0203e0 	mov	x0, x2
    2150:	94001622 	bl	79d8 <__utee_check_out_annotation>
/usr/src/debug/optee-os-stm32mp/4.0.0-stm32mp-r1/lib/libutee/tee_api_objects.c:328
    2154:	2a1503e1 	mov	w1, w21
    2158:	2a1303e0 	mov	w0, w19
    215c:	910013e2 	add	x2, sp, #0x4
    2160:	9400186b 	bl	830c <_utee_cryp_obj_alloc>
/usr/src/debug/optee-os-stm32mp/4.0.0-stm32mp-r1/lib/libutee/tee_api_objects.c:330
    2164:	7100001f 	cmp	w0, #0x0
    2168:	129ffe61 	mov	w1, #0xffff000c            	// #-65524
/usr/src/debug/optee-os-stm32mp/4.0.0-stm32mp-r1/lib/libutee/tee_api_objects.c:328
    216c:	2a0003f3 	mov	w19, w0
/usr/src/debug/optee-os-stm32mp/4.0.0-stm32mp-r1/lib/libutee/tee_api_objects.c:330
    2170:	7a411004 	ccmp	w0, w1, #0x4, ne	// ne = any
    2174:	540001a0 	b.eq	21a8 <__GP11_TEE_AllocateTransientObject+0x94>  // b.none
/usr/src/debug/optee-os-stm32mp/4.0.0-stm32mp-r1/lib/libutee/tee_api_objects.c:331
    2178:	129ffea1 	mov	w1, #0xffff000a            	// #-65526
    217c:	6b01001f 	cmp	w0, w1
    2180:	54000040 	b.eq	2188 <__GP11_TEE_AllocateTransientObject+0x74>  // b.none
/usr/src/debug/optee-os-stm32mp/4.0.0-stm32mp-r1/lib/libutee/tee_api_objects.c:333
    2184:	940015d1 	bl	78c8 <TEE_Panic>
/usr/src/debug/optee-os-stm32mp/4.0.0-stm32mp-r1/lib/libutee/tee_api_objects.c:339
    2188:	900000c3 	adrp	x3, 1a000 <_DYNAMIC>
    218c:	f9409863 	ldr	x3, [x3, #304]
    2190:	f94007e0 	ldr	x0, [sp, #8]
    2194:	f9400061 	ldr	x1, [x3]
    2198:	eb010000 	subs	x0, x0, x1
    219c:	d2800001 	mov	x1, #0x0                   	// #0
    21a0:	540000c0 	b.eq	21b8 <__GP11_TEE_AllocateTransientObject+0xa4>  // b.none
    21a4:	97fff90b 	bl	5d0 <__stack_chk_fail>
/usr/src/debug/optee-os-stm32mp/4.0.0-stm32mp-r1/lib/libutee/tee_api_objects.c:335
    21a8:	35ffff00 	cbnz	w0, 2188 <__GP11_TEE_AllocateTransientObject+0x74>
/usr/src/debug/optee-os-stm32mp/4.0.0-stm32mp-r1/lib/libutee/tee_api_objects.c:336
    21ac:	b94007e0 	ldr	w0, [sp, #4]
    21b0:	f9000280 	str	x0, [x20]
/usr/src/debug/optee-os-stm32mp/4.0.0-stm32mp-r1/lib/libutee/tee_api_objects.c:338
    21b4:	17fffff5 	b	2188 <__GP11_TEE_AllocateTransientObject+0x74>
/usr/src/debug/optee-os-stm32mp/4.0.0-stm32mp-r1/lib/libutee/tee_api_objects.c:339
    21b8:	a9417bfd 	ldp	x29, x30, [sp, #16]
    21bc:	2a1303e0 	mov	w0, w19
    21c0:	a94253f3 	ldp	x19, x20, [sp, #32]
    21c4:	f9401bf5 	ldr	x21, [sp, #48]
    21c8:	910103ff 	add	sp, sp, #0x40
    21cc:	d65f03c0 	ret

00000000000021d0 <TEE_AllocateTransientObject>:
TEE_AllocateTransientObject():
/usr/src/debug/optee-os-stm32mp/4.0.0-stm32mp-r1/lib/libutee/tee_api_objects.c:312
    21d0:	528017e3 	mov	w3, #0xbf                  	// #191
    21d4:	72b40003 	movk	w3, #0xa000, lsl #16
    21d8:	6b03001f 	cmp	w0, w3
    21dc:	54000040 	b.eq	21e4 <TEE_AllocateTransientObject+0x14>  // b.none
/usr/src/debug/optee-os-stm32mp/4.0.0-stm32mp-r1/lib/libutee/tee_api_objects.c:315
    21e0:	17ffffcd 	b	2114 <__GP11_TEE_AllocateTransientObject>
/usr/src/debug/optee-os-stm32mp/4.0.0-stm32mp-r1/lib/libutee/tee_api_objects.c:317
    21e4:	129ffea0 	mov	w0, #0xffff000a            	// #-65526
    21e8:	d65f03c0 	ret

00000000000021ec <TEE_FreeTransientObject>:
TEE_FreeTransientObject():
/usr/src/debug/optee-os-stm32mp/4.0.0-stm32mp-r1/lib/libutee/tee_api_objects.c:342
    21ec:	d10143ff 	sub	sp, sp, #0x50
    21f0:	900000c1 	adrp	x1, 1a000 <_DYNAMIC>
    21f4:	a9037bfd 	stp	x29, x30, [sp, #48]
    21f8:	9100c3fd 	add	x29, sp, #0x30
    21fc:	f9409821 	ldr	x1, [x1, #304]
    2200:	f90023f3 	str	x19, [sp, #64]
    2204:	f9400022 	ldr	x2, [x1]
    2208:	f90017e2 	str	x2, [sp, #40]
    220c:	d2800002 	mov	x2, #0x0                   	// #0
/usr/src/debug/optee-os-stm32mp/4.0.0-stm32mp-r1/lib/libutee/tee_api_objects.c:343
    2210:	a900ffff 	stp	xzr, xzr, [sp, #8]
    2214:	f9000fff 	str	xzr, [sp, #24]
    2218:	b90023ff 	str	wzr, [sp, #32]
/usr/src/debug/optee-os-stm32mp/4.0.0-stm32mp-r1/lib/libutee/tee_api_objects.c:346
    221c:	b40001c0 	cbz	x0, 2254 <TEE_FreeTransientObject+0x68>
    2220:	aa0003f3 	mov	x19, x0
/usr/src/debug/optee-os-stm32mp/4.0.0-stm32mp-r1/lib/libutee/tee_api_objects.c:349
    2224:	910023e1 	add	x1, sp, #0x8
    2228:	94001830 	bl	82e8 <_utee_cryp_obj_get_info>
/usr/src/debug/optee-os-stm32mp/4.0.0-stm32mp-r1/lib/libutee/tee_api_objects.c:350
    222c:	34000040 	cbz	w0, 2234 <TEE_FreeTransientObject+0x48>
/usr/src/debug/optee-os-stm32mp/4.0.0-stm32mp-r1/lib/libutee/tee_api_objects.c:351
    2230:	940015a6 	bl	78c8 <TEE_Panic>
/usr/src/debug/optee-os-stm32mp/4.0.0-stm32mp-r1/lib/libutee/tee_api_objects.c:353
    2234:	b94023e0 	ldr	w0, [sp, #32]
    2238:	36800060 	tbz	w0, #16, 2244 <TEE_FreeTransientObject+0x58>
/usr/src/debug/optee-os-stm32mp/4.0.0-stm32mp-r1/lib/libutee/tee_api_objects.c:354
    223c:	52800000 	mov	w0, #0x0                   	// #0
    2240:	940015a2 	bl	78c8 <TEE_Panic>
/usr/src/debug/optee-os-stm32mp/4.0.0-stm32mp-r1/lib/libutee/tee_api_objects.c:356
    2244:	aa1303e0 	mov	x0, x19
    2248:	94001834 	bl	8318 <_utee_cryp_obj_close>
/usr/src/debug/optee-os-stm32mp/4.0.0-stm32mp-r1/lib/libutee/tee_api_objects.c:357
    224c:	34000040 	cbz	w0, 2254 <TEE_FreeTransientObject+0x68>
/usr/src/debug/optee-os-stm32mp/4.0.0-stm32mp-r1/lib/libutee/tee_api_objects.c:358
    2250:	9400159e 	bl	78c8 <TEE_Panic>
/usr/src/debug/optee-os-stm32mp/4.0.0-stm32mp-r1/lib/libutee/tee_api_objects.c:359
    2254:	900000c1 	adrp	x1, 1a000 <_DYNAMIC>
    2258:	f9409821 	ldr	x1, [x1, #304]
    225c:	f94017e0 	ldr	x0, [sp, #40]
    2260:	f9400022 	ldr	x2, [x1]
    2264:	eb020000 	subs	x0, x0, x2
    2268:	d2800002 	mov	x2, #0x0                   	// #0
    226c:	54000040 	b.eq	2274 <TEE_FreeTransientObject+0x88>  // b.none
    2270:	97fff8d8 	bl	5d0 <__stack_chk_fail>
    2274:	a9437bfd 	ldp	x29, x30, [sp, #48]
    2278:	f94023f3 	ldr	x19, [sp, #64]
    227c:	910143ff 	add	sp, sp, #0x50
    2280:	d65f03c0 	ret

0000000000002284 <TEE_ResetTransientObject>:
TEE_ResetTransientObject():
/usr/src/debug/optee-os-stm32mp/4.0.0-stm32mp-r1/lib/libutee/tee_api_objects.c:362
    2284:	d10143ff 	sub	sp, sp, #0x50
    2288:	900000c1 	adrp	x1, 1a000 <_DYNAMIC>
    228c:	a9037bfd 	stp	x29, x30, [sp, #48]
    2290:	9100c3fd 	add	x29, sp, #0x30
    2294:	f9409821 	ldr	x1, [x1, #304]
    2298:	f90023f3 	str	x19, [sp, #64]
    229c:	f9400022 	ldr	x2, [x1]
    22a0:	f90017e2 	str	x2, [sp, #40]
    22a4:	d2800002 	mov	x2, #0x0                   	// #0
/usr/src/debug/optee-os-stm32mp/4.0.0-stm32mp-r1/lib/libutee/tee_api_objects.c:363
    22a8:	a900ffff 	stp	xzr, xzr, [sp, #8]
    22ac:	f9000fff 	str	xzr, [sp, #24]
    22b0:	b90023ff 	str	wzr, [sp, #32]
/usr/src/debug/optee-os-stm32mp/4.0.0-stm32mp-r1/lib/libutee/tee_api_objects.c:366
    22b4:	b40001c0 	cbz	x0, 22ec <TEE_ResetTransientObject+0x68>
    22b8:	aa0003f3 	mov	x19, x0
/usr/src/debug/optee-os-stm32mp/4.0.0-stm32mp-r1/lib/libutee/tee_api_objects.c:369
    22bc:	910023e1 	add	x1, sp, #0x8
    22c0:	9400180a 	bl	82e8 <_utee_cryp_obj_get_info>
/usr/src/debug/optee-os-stm32mp/4.0.0-stm32mp-r1/lib/libutee/tee_api_objects.c:370
    22c4:	34000040 	cbz	w0, 22cc <TEE_ResetTransientObject+0x48>
/usr/src/debug/optee-os-stm32mp/4.0.0-stm32mp-r1/lib/libutee/tee_api_objects.c:371
    22c8:	94001580 	bl	78c8 <TEE_Panic>
/usr/src/debug/optee-os-stm32mp/4.0.0-stm32mp-r1/lib/libutee/tee_api_objects.c:373
    22cc:	b94023e0 	ldr	w0, [sp, #32]
    22d0:	36800060 	tbz	w0, #16, 22dc <TEE_ResetTransientObject+0x58>
/usr/src/debug/optee-os-stm32mp/4.0.0-stm32mp-r1/lib/libutee/tee_api_objects.c:374
    22d4:	52800000 	mov	w0, #0x0                   	// #0
    22d8:	9400157c 	bl	78c8 <TEE_Panic>
/usr/src/debug/optee-os-stm32mp/4.0.0-stm32mp-r1/lib/libutee/tee_api_objects.c:376
    22dc:	aa1303e0 	mov	x0, x19
    22e0:	94001811 	bl	8324 <_utee_cryp_obj_reset>
/usr/src/debug/optee-os-stm32mp/4.0.0-stm32mp-r1/lib/libutee/tee_api_objects.c:377
    22e4:	34000040 	cbz	w0, 22ec <TEE_ResetTransientObject+0x68>
/usr/src/debug/optee-os-stm32mp/4.0.0-stm32mp-r1/lib/libutee/tee_api_objects.c:378
    22e8:	94001578 	bl	78c8 <TEE_Panic>
/usr/src/debug/optee-os-stm32mp/4.0.0-stm32mp-r1/lib/libutee/tee_api_objects.c:379
    22ec:	900000c1 	adrp	x1, 1a000 <_DYNAMIC>
    22f0:	f9409821 	ldr	x1, [x1, #304]
    22f4:	f94017e0 	ldr	x0, [sp, #40]
    22f8:	f9400022 	ldr	x2, [x1]
    22fc:	eb020000 	subs	x0, x0, x2
    2300:	d2800002 	mov	x2, #0x0                   	// #0
    2304:	54000040 	b.eq	230c <TEE_ResetTransientObject+0x88>  // b.none
    2308:	97fff8b2 	bl	5d0 <__stack_chk_fail>
    230c:	a9437bfd 	ldp	x29, x30, [sp, #48]
    2310:	f94023f3 	ldr	x19, [sp, #64]
    2314:	910143ff 	add	sp, sp, #0x50
    2318:	d65f03c0 	ret

000000000000231c <TEE_PopulateTransientObject>:
TEE_PopulateTransientObject():
/usr/src/debug/optee-os-stm32mp/4.0.0-stm32mp-r1/lib/libutee/tee_api_objects.c:384
    231c:	a9bc7bfd 	stp	x29, x30, [sp, #-64]!
    2320:	900000c3 	adrp	x3, 1a000 <_DYNAMIC>
    2324:	910003fd 	mov	x29, sp
    2328:	a90153f3 	stp	x19, x20, [sp, #16]
    232c:	aa0003f4 	mov	x20, x0
    2330:	a9025bf5 	stp	x21, x22, [sp, #32]
    2334:	aa0103f5 	mov	x21, x1
    2338:	f9001bf7 	str	x23, [sp, #48]
    233c:	d100c3ff 	sub	sp, sp, #0x30
    2340:	2a0203f7 	mov	w23, w2
    2344:	f9409863 	ldr	x3, [x3, #304]
/usr/src/debug/optee-os-stm32mp/4.0.0-stm32mp-r1/lib/libutee/tee_api_objects.c:389
    2348:	aa1703e1 	mov	x1, x23
/usr/src/debug/optee-os-stm32mp/4.0.0-stm32mp-r1/lib/libutee/tee_api_objects.c:384
    234c:	aa1703f3 	mov	x19, x23
    2350:	f9400060 	ldr	x0, [x3]
    2354:	f81f83a0 	stur	x0, [x29, #-8]
    2358:	d2800000 	mov	x0, #0x0                   	// #0
/usr/src/debug/optee-os-stm32mp/4.0.0-stm32mp-r1/lib/libutee/tee_api_objects.c:385
    235c:	52800303 	mov	w3, #0x18                  	// #24
/usr/src/debug/optee-os-stm32mp/4.0.0-stm32mp-r1/lib/libutee/tee_api_objects.c:389
    2360:	aa1503e0 	mov	x0, x21
/usr/src/debug/optee-os-stm32mp/4.0.0-stm32mp-r1/lib/libutee/tee_api_objects.c:385
    2364:	9ba37ee3 	umull	x3, w23, w3
    2368:	91003c63 	add	x3, x3, #0xf
    236c:	927c8463 	and	x3, x3, #0x3ffffffff0
    2370:	cb2363ff 	sub	sp, sp, x3
/usr/src/debug/optee-os-stm32mp/4.0.0-stm32mp-r1/lib/libutee/tee_api_objects.c:386
    2374:	a93dffbf 	stp	xzr, xzr, [x29, #-40]
/usr/src/debug/optee-os-stm32mp/4.0.0-stm32mp-r1/lib/libutee/tee_api_objects.c:385
    2378:	910003f6 	mov	x22, sp
/usr/src/debug/optee-os-stm32mp/4.0.0-stm32mp-r1/lib/libutee/tee_api_objects.c:386
    237c:	f81e83bf 	stur	xzr, [x29, #-24]
    2380:	b81f03bf 	stur	wzr, [x29, #-16]
/usr/src/debug/optee-os-stm32mp/4.0.0-stm32mp-r1/lib/libutee/tee_api_objects.c:389
    2384:	940015a0 	bl	7a04 <__utee_check_attr_in_annotation>
/usr/src/debug/optee-os-stm32mp/4.0.0-stm32mp-r1/lib/libutee/tee_api_objects.c:391
    2388:	d100a3a1 	sub	x1, x29, #0x28
    238c:	aa1403e0 	mov	x0, x20
    2390:	940017d6 	bl	82e8 <_utee_cryp_obj_get_info>
/usr/src/debug/optee-os-stm32mp/4.0.0-stm32mp-r1/lib/libutee/tee_api_objects.c:392
    2394:	34000040 	cbz	w0, 239c <TEE_PopulateTransientObject+0x80>
/usr/src/debug/optee-os-stm32mp/4.0.0-stm32mp-r1/lib/libutee/tee_api_objects.c:393
    2398:	9400154c 	bl	78c8 <TEE_Panic>
/usr/src/debug/optee-os-stm32mp/4.0.0-stm32mp-r1/lib/libutee/tee_api_objects.c:396
    239c:	b85f03a0 	ldur	w0, [x29, #-16]
    23a0:	36800060 	tbz	w0, #16, 23ac <TEE_PopulateTransientObject+0x90>
/usr/src/debug/optee-os-stm32mp/4.0.0-stm32mp-r1/lib/libutee/tee_api_objects.c:397
    23a4:	52800000 	mov	w0, #0x0                   	// #0
    23a8:	94001548 	bl	78c8 <TEE_Panic>
/usr/src/debug/optee-os-stm32mp/4.0.0-stm32mp-r1/lib/libutee/tee_api_objects.c:400
    23ac:	b85f03a0 	ldur	w0, [x29, #-16]
    23b0:	36880060 	tbz	w0, #17, 23bc <TEE_PopulateTransientObject+0xa0>
/usr/src/debug/optee-os-stm32mp/4.0.0-stm32mp-r1/lib/libutee/tee_api_objects.c:401
    23b4:	52800000 	mov	w0, #0x0                   	// #0
    23b8:	94001544 	bl	78c8 <TEE_Panic>
/usr/src/debug/optee-os-stm32mp/4.0.0-stm32mp-r1/lib/libutee/tee_api_objects.c:403
    23bc:	2a1303e2 	mov	w2, w19
    23c0:	aa1503e1 	mov	x1, x21
    23c4:	aa1603e0 	mov	x0, x22
    23c8:	97fffd69 	bl	196c <__utee_from_attr>
/usr/src/debug/optee-os-stm32mp/4.0.0-stm32mp-r1/lib/libutee/tee_api_objects.c:404
    23cc:	aa1603e1 	mov	x1, x22
    23d0:	aa1703e2 	mov	x2, x23
    23d4:	aa1403e0 	mov	x0, x20
    23d8:	940017d6 	bl	8330 <_utee_cryp_obj_populate>
/usr/src/debug/optee-os-stm32mp/4.0.0-stm32mp-r1/lib/libutee/tee_api_objects.c:405
    23dc:	7100001f 	cmp	w0, #0x0
    23e0:	129fff21 	mov	w1, #0xffff0006            	// #-65530
/usr/src/debug/optee-os-stm32mp/4.0.0-stm32mp-r1/lib/libutee/tee_api_objects.c:404
    23e4:	2a0003f3 	mov	w19, w0
/usr/src/debug/optee-os-stm32mp/4.0.0-stm32mp-r1/lib/libutee/tee_api_objects.c:405
    23e8:	7a411004 	ccmp	w0, w1, #0x4, ne	// ne = any
    23ec:	54000040 	b.eq	23f4 <TEE_PopulateTransientObject+0xd8>  // b.none
/usr/src/debug/optee-os-stm32mp/4.0.0-stm32mp-r1/lib/libutee/tee_api_objects.c:406
    23f0:	94001536 	bl	78c8 <TEE_Panic>
/usr/src/debug/optee-os-stm32mp/4.0.0-stm32mp-r1/lib/libutee/tee_api_objects.c:408
    23f4:	900000c3 	adrp	x3, 1a000 <_DYNAMIC>
    23f8:	f9409863 	ldr	x3, [x3, #304]
    23fc:	f85f83a0 	ldur	x0, [x29, #-8]
    2400:	f9400061 	ldr	x1, [x3]
    2404:	eb010000 	subs	x0, x0, x1
    2408:	d2800001 	mov	x1, #0x0                   	// #0
    240c:	54000040 	b.eq	2414 <TEE_PopulateTransientObject+0xf8>  // b.none
    2410:	97fff870 	bl	5d0 <__stack_chk_fail>
    2414:	910003bf 	mov	sp, x29
    2418:	2a1303e0 	mov	w0, w19
    241c:	a94153f3 	ldp	x19, x20, [sp, #16]
    2420:	a9425bf5 	ldp	x21, x22, [sp, #32]
    2424:	f9401bf7 	ldr	x23, [sp, #48]
    2428:	a8c47bfd 	ldp	x29, x30, [sp], #64
    242c:	d65f03c0 	ret

0000000000002430 <__GP11_TEE_PopulateTransientObject>:
__GP11_TEE_PopulateTransientObject():
/usr/src/debug/optee-os-stm32mp/4.0.0-stm32mp-r1/lib/libutee/tee_api_objects.c:413
    2430:	a9bc7bfd 	stp	x29, x30, [sp, #-64]!
    2434:	900000c3 	adrp	x3, 1a000 <_DYNAMIC>
    2438:	910003fd 	mov	x29, sp
    243c:	a90153f3 	stp	x19, x20, [sp, #16]
    2440:	aa0003f4 	mov	x20, x0
    2444:	a9025bf5 	stp	x21, x22, [sp, #32]
    2448:	aa0103f5 	mov	x21, x1
    244c:	f9001bf7 	str	x23, [sp, #48]
    2450:	d100c3ff 	sub	sp, sp, #0x30
    2454:	2a0203f7 	mov	w23, w2
    2458:	f9409863 	ldr	x3, [x3, #304]
/usr/src/debug/optee-os-stm32mp/4.0.0-stm32mp-r1/lib/libutee/tee_api_objects.c:418
    245c:	aa1703e1 	mov	x1, x23
/usr/src/debug/optee-os-stm32mp/4.0.0-stm32mp-r1/lib/libutee/tee_api_objects.c:413
    2460:	aa1703f3 	mov	x19, x23
    2464:	f9400060 	ldr	x0, [x3]
    2468:	f81f83a0 	stur	x0, [x29, #-8]
    246c:	d2800000 	mov	x0, #0x0                   	// #0
/usr/src/debug/optee-os-stm32mp/4.0.0-stm32mp-r1/lib/libutee/tee_api_objects.c:414
    2470:	52800303 	mov	w3, #0x18                  	// #24
/usr/src/debug/optee-os-stm32mp/4.0.0-stm32mp-r1/lib/libutee/tee_api_objects.c:418
    2474:	aa1503e0 	mov	x0, x21
/usr/src/debug/optee-os-stm32mp/4.0.0-stm32mp-r1/lib/libutee/tee_api_objects.c:414
    2478:	9ba37ee3 	umull	x3, w23, w3
    247c:	91003c63 	add	x3, x3, #0xf
    2480:	927c8463 	and	x3, x3, #0x3ffffffff0
    2484:	cb2363ff 	sub	sp, sp, x3
/usr/src/debug/optee-os-stm32mp/4.0.0-stm32mp-r1/lib/libutee/tee_api_objects.c:415
    2488:	a93dffbf 	stp	xzr, xzr, [x29, #-40]
/usr/src/debug/optee-os-stm32mp/4.0.0-stm32mp-r1/lib/libutee/tee_api_objects.c:414
    248c:	910003f6 	mov	x22, sp
/usr/src/debug/optee-os-stm32mp/4.0.0-stm32mp-r1/lib/libutee/tee_api_objects.c:415
    2490:	f81e83bf 	stur	xzr, [x29, #-24]
    2494:	b81f03bf 	stur	wzr, [x29, #-16]
/usr/src/debug/optee-os-stm32mp/4.0.0-stm32mp-r1/lib/libutee/tee_api_objects.c:418
    2498:	94001567 	bl	7a34 <__utee_check_gp11_attr_in_annotation>
/usr/src/debug/optee-os-stm32mp/4.0.0-stm32mp-r1/lib/libutee/tee_api_objects.c:420
    249c:	d100a3a1 	sub	x1, x29, #0x28
    24a0:	aa1403e0 	mov	x0, x20
    24a4:	94001791 	bl	82e8 <_utee_cryp_obj_get_info>
/usr/src/debug/optee-os-stm32mp/4.0.0-stm32mp-r1/lib/libutee/tee_api_objects.c:421
    24a8:	34000040 	cbz	w0, 24b0 <__GP11_TEE_PopulateTransientObject+0x80>
/usr/src/debug/optee-os-stm32mp/4.0.0-stm32mp-r1/lib/libutee/tee_api_objects.c:422
    24ac:	94001507 	bl	78c8 <TEE_Panic>
/usr/src/debug/optee-os-stm32mp/4.0.0-stm32mp-r1/lib/libutee/tee_api_objects.c:425
    24b0:	b85f03a0 	ldur	w0, [x29, #-16]
    24b4:	36800060 	tbz	w0, #16, 24c0 <__GP11_TEE_PopulateTransientObject+0x90>
/usr/src/debug/optee-os-stm32mp/4.0.0-stm32mp-r1/lib/libutee/tee_api_objects.c:426
    24b8:	52800000 	mov	w0, #0x0                   	// #0
    24bc:	94001503 	bl	78c8 <TEE_Panic>
/usr/src/debug/optee-os-stm32mp/4.0.0-stm32mp-r1/lib/libutee/tee_api_objects.c:429
    24c0:	b85f03a0 	ldur	w0, [x29, #-16]
    24c4:	36880060 	tbz	w0, #17, 24d0 <__GP11_TEE_PopulateTransientObject+0xa0>
/usr/src/debug/optee-os-stm32mp/4.0.0-stm32mp-r1/lib/libutee/tee_api_objects.c:430
    24c8:	52800000 	mov	w0, #0x0                   	// #0
    24cc:	940014ff 	bl	78c8 <TEE_Panic>
/usr/src/debug/optee-os-stm32mp/4.0.0-stm32mp-r1/lib/libutee/tee_api_objects.c:432
    24d0:	2a1303e2 	mov	w2, w19
    24d4:	aa1503e1 	mov	x1, x21
    24d8:	aa1603e0 	mov	x0, x22
    24dc:	97fffd38 	bl	19bc <__utee_from_gp11_attr>
/usr/src/debug/optee-os-stm32mp/4.0.0-stm32mp-r1/lib/libutee/tee_api_objects.c:433
    24e0:	aa1603e1 	mov	x1, x22
    24e4:	aa1703e2 	mov	x2, x23
    24e8:	aa1403e0 	mov	x0, x20
    24ec:	94001791 	bl	8330 <_utee_cryp_obj_populate>
/usr/src/debug/optee-os-stm32mp/4.0.0-stm32mp-r1/lib/libutee/tee_api_objects.c:434
    24f0:	7100001f 	cmp	w0, #0x0
    24f4:	129fff21 	mov	w1, #0xffff0006            	// #-65530
/usr/src/debug/optee-os-stm32mp/4.0.0-stm32mp-r1/lib/libutee/tee_api_objects.c:433
    24f8:	2a0003f3 	mov	w19, w0
/usr/src/debug/optee-os-stm32mp/4.0.0-stm32mp-r1/lib/libutee/tee_api_objects.c:434
    24fc:	7a411004 	ccmp	w0, w1, #0x4, ne	// ne = any
    2500:	54000040 	b.eq	2508 <__GP11_TEE_PopulateTransientObject+0xd8>  // b.none
/usr/src/debug/optee-os-stm32mp/4.0.0-stm32mp-r1/lib/libutee/tee_api_objects.c:435
    2504:	940014f1 	bl	78c8 <TEE_Panic>
/usr/src/debug/optee-os-stm32mp/4.0.0-stm32mp-r1/lib/libutee/tee_api_objects.c:437
    2508:	900000c3 	adrp	x3, 1a000 <_DYNAMIC>
    250c:	f9409863 	ldr	x3, [x3, #304]
    2510:	f85f83a0 	ldur	x0, [x29, #-8]
    2514:	f9400061 	ldr	x1, [x3]
    2518:	eb010000 	subs	x0, x0, x1
    251c:	d2800001 	mov	x1, #0x0                   	// #0
    2520:	54000040 	b.eq	2528 <__GP11_TEE_PopulateTransientObject+0xf8>  // b.none
    2524:	97fff82b 	bl	5d0 <__stack_chk_fail>
    2528:	910003bf 	mov	sp, x29
    252c:	2a1303e0 	mov	w0, w19
    2530:	a94153f3 	ldp	x19, x20, [sp, #16]
    2534:	a9425bf5 	ldp	x21, x22, [sp, #32]
    2538:	f9401bf7 	ldr	x23, [sp, #48]
    253c:	a8c47bfd 	ldp	x29, x30, [sp], #64
    2540:	d65f03c0 	ret

0000000000002544 <TEE_InitRefAttribute>:
TEE_InitRefAttribute():
/usr/src/debug/optee-os-stm32mp/4.0.0-stm32mp-r1/lib/libutee/tee_api_objects.c:441
    2544:	a9bd7bfd 	stp	x29, x30, [sp, #-48]!
    2548:	910003fd 	mov	x29, sp
    254c:	a90153f3 	stp	x19, x20, [sp, #16]
    2550:	2a0103f4 	mov	w20, w1
    2554:	aa0003f3 	mov	x19, x0
/usr/src/debug/optee-os-stm32mp/4.0.0-stm32mp-r1/lib/libutee/tee_api_objects.c:442
    2558:	d2800301 	mov	x1, #0x18                  	// #24
/usr/src/debug/optee-os-stm32mp/4.0.0-stm32mp-r1/lib/libutee/tee_api_objects.c:441
    255c:	a9025bf5 	stp	x21, x22, [sp, #32]
    2560:	aa0203f6 	mov	x22, x2
    2564:	aa0303f5 	mov	x21, x3
/usr/src/debug/optee-os-stm32mp/4.0.0-stm32mp-r1/lib/libutee/tee_api_objects.c:442
    2568:	9400151c 	bl	79d8 <__utee_check_out_annotation>
/usr/src/debug/optee-os-stm32mp/4.0.0-stm32mp-r1/lib/libutee/tee_api_objects.c:444
    256c:	36e80074 	tbz	w20, #29, 2578 <TEE_InitRefAttribute+0x34>
/usr/src/debug/optee-os-stm32mp/4.0.0-stm32mp-r1/lib/libutee/tee_api_objects.c:445
    2570:	52800000 	mov	w0, #0x0                   	// #0
    2574:	940014d5 	bl	78c8 <TEE_Panic>
/usr/src/debug/optee-os-stm32mp/4.0.0-stm32mp-r1/lib/libutee/tee_api_objects.c:446
    2578:	b9000274 	str	w20, [x19]
/usr/src/debug/optee-os-stm32mp/4.0.0-stm32mp-r1/lib/libutee/tee_api_objects.c:448
    257c:	a900d676 	stp	x22, x21, [x19, #8]
/usr/src/debug/optee-os-stm32mp/4.0.0-stm32mp-r1/lib/libutee/tee_api_objects.c:449
    2580:	a94153f3 	ldp	x19, x20, [sp, #16]
    2584:	a9425bf5 	ldp	x21, x22, [sp, #32]
    2588:	a8c37bfd 	ldp	x29, x30, [sp], #48
    258c:	d65f03c0 	ret

0000000000002590 <__GP11_TEE_InitRefAttribute>:
__GP11_TEE_InitRefAttribute():
/usr/src/debug/optee-os-stm32mp/4.0.0-stm32mp-r1/lib/libutee/tee_api_objects.c:454
    2590:	a9bd7bfd 	stp	x29, x30, [sp, #-48]!
    2594:	910003fd 	mov	x29, sp
    2598:	a90153f3 	stp	x19, x20, [sp, #16]
    259c:	2a0103f4 	mov	w20, w1
    25a0:	aa0003f3 	mov	x19, x0
/usr/src/debug/optee-os-stm32mp/4.0.0-stm32mp-r1/lib/libutee/tee_api_objects.c:455
    25a4:	d2800301 	mov	x1, #0x18                  	// #24
/usr/src/debug/optee-os-stm32mp/4.0.0-stm32mp-r1/lib/libutee/tee_api_objects.c:454
    25a8:	a9025bf5 	stp	x21, x22, [sp, #32]
    25ac:	aa0203f6 	mov	x22, x2
    25b0:	2a0303f5 	mov	w21, w3
/usr/src/debug/optee-os-stm32mp/4.0.0-stm32mp-r1/lib/libutee/tee_api_objects.c:455
    25b4:	94001509 	bl	79d8 <__utee_check_out_annotation>
/usr/src/debug/optee-os-stm32mp/4.0.0-stm32mp-r1/lib/libutee/tee_api_objects.c:457
    25b8:	36e80074 	tbz	w20, #29, 25c4 <__GP11_TEE_InitRefAttribute+0x34>
/usr/src/debug/optee-os-stm32mp/4.0.0-stm32mp-r1/lib/libutee/tee_api_objects.c:458
    25bc:	52800000 	mov	w0, #0x0                   	// #0
    25c0:	940014c2 	bl	78c8 <TEE_Panic>
/usr/src/debug/optee-os-stm32mp/4.0.0-stm32mp-r1/lib/libutee/tee_api_objects.c:459
    25c4:	b9000274 	str	w20, [x19]
/usr/src/debug/optee-os-stm32mp/4.0.0-stm32mp-r1/lib/libutee/tee_api_objects.c:460
    25c8:	f9000676 	str	x22, [x19, #8]
/usr/src/debug/optee-os-stm32mp/4.0.0-stm32mp-r1/lib/libutee/tee_api_objects.c:461
    25cc:	b9001275 	str	w21, [x19, #16]
/usr/src/debug/optee-os-stm32mp/4.0.0-stm32mp-r1/lib/libutee/tee_api_objects.c:462
    25d0:	a94153f3 	ldp	x19, x20, [sp, #16]
    25d4:	a9425bf5 	ldp	x21, x22, [sp, #32]
    25d8:	a8c37bfd 	ldp	x29, x30, [sp], #48
    25dc:	d65f03c0 	ret

00000000000025e0 <TEE_InitValueAttribute>:
TEE_InitValueAttribute():
/usr/src/debug/optee-os-stm32mp/4.0.0-stm32mp-r1/lib/libutee/tee_api_objects.c:466
    25e0:	a9bd7bfd 	stp	x29, x30, [sp, #-48]!
    25e4:	910003fd 	mov	x29, sp
    25e8:	a90153f3 	stp	x19, x20, [sp, #16]
    25ec:	2a0103f4 	mov	w20, w1
    25f0:	aa0003f3 	mov	x19, x0
/usr/src/debug/optee-os-stm32mp/4.0.0-stm32mp-r1/lib/libutee/tee_api_objects.c:467
    25f4:	d2800301 	mov	x1, #0x18                  	// #24
/usr/src/debug/optee-os-stm32mp/4.0.0-stm32mp-r1/lib/libutee/tee_api_objects.c:466
    25f8:	a9025bf5 	stp	x21, x22, [sp, #32]
    25fc:	2a0203f6 	mov	w22, w2
    2600:	2a0303f5 	mov	w21, w3
/usr/src/debug/optee-os-stm32mp/4.0.0-stm32mp-r1/lib/libutee/tee_api_objects.c:467
    2604:	940014f5 	bl	79d8 <__utee_check_out_annotation>
/usr/src/debug/optee-os-stm32mp/4.0.0-stm32mp-r1/lib/libutee/tee_api_objects.c:469
    2608:	37e80074 	tbnz	w20, #29, 2614 <TEE_InitValueAttribute+0x34>
/usr/src/debug/optee-os-stm32mp/4.0.0-stm32mp-r1/lib/libutee/tee_api_objects.c:470
    260c:	52800000 	mov	w0, #0x0                   	// #0
    2610:	940014ae 	bl	78c8 <TEE_Panic>
/usr/src/debug/optee-os-stm32mp/4.0.0-stm32mp-r1/lib/libutee/tee_api_objects.c:471
    2614:	b9000274 	str	w20, [x19]
/usr/src/debug/optee-os-stm32mp/4.0.0-stm32mp-r1/lib/libutee/tee_api_objects.c:473
    2618:	29015676 	stp	w22, w21, [x19, #8]
/usr/src/debug/optee-os-stm32mp/4.0.0-stm32mp-r1/lib/libutee/tee_api_objects.c:474
    261c:	a94153f3 	ldp	x19, x20, [sp, #16]
    2620:	a9425bf5 	ldp	x21, x22, [sp, #32]
    2624:	a8c37bfd 	ldp	x29, x30, [sp], #48
    2628:	d65f03c0 	ret

000000000000262c <__GP11_TEE_InitValueAttribute>:
__GP11_TEE_InitValueAttribute():
/usr/src/debug/optee-os-stm32mp/4.0.0-stm32mp-r1/lib/libutee/tee_api_objects.c:479
    262c:	a9bd7bfd 	stp	x29, x30, [sp, #-48]!
    2630:	910003fd 	mov	x29, sp
    2634:	a90153f3 	stp	x19, x20, [sp, #16]
    2638:	2a0103f4 	mov	w20, w1
    263c:	aa0003f3 	mov	x19, x0
/usr/src/debug/optee-os-stm32mp/4.0.0-stm32mp-r1/lib/libutee/tee_api_objects.c:480
    2640:	d2800301 	mov	x1, #0x18                  	// #24
/usr/src/debug/optee-os-stm32mp/4.0.0-stm32mp-r1/lib/libutee/tee_api_objects.c:479
    2644:	a9025bf5 	stp	x21, x22, [sp, #32]
    2648:	2a0203f6 	mov	w22, w2
    264c:	2a0303f5 	mov	w21, w3
/usr/src/debug/optee-os-stm32mp/4.0.0-stm32mp-r1/lib/libutee/tee_api_objects.c:480
    2650:	940014e2 	bl	79d8 <__utee_check_out_annotation>
/usr/src/debug/optee-os-stm32mp/4.0.0-stm32mp-r1/lib/libutee/tee_api_objects.c:482
    2654:	37e80074 	tbnz	w20, #29, 2660 <__GP11_TEE_InitValueAttribute+0x34>
/usr/src/debug/optee-os-stm32mp/4.0.0-stm32mp-r1/lib/libutee/tee_api_objects.c:483
    2658:	52800000 	mov	w0, #0x0                   	// #0
    265c:	9400149b 	bl	78c8 <TEE_Panic>
/usr/src/debug/optee-os-stm32mp/4.0.0-stm32mp-r1/lib/libutee/tee_api_objects.c:484
    2660:	b9000274 	str	w20, [x19]
/usr/src/debug/optee-os-stm32mp/4.0.0-stm32mp-r1/lib/libutee/tee_api_objects.c:486
    2664:	29015676 	stp	w22, w21, [x19, #8]
/usr/src/debug/optee-os-stm32mp/4.0.0-stm32mp-r1/lib/libutee/tee_api_objects.c:487
    2668:	a94153f3 	ldp	x19, x20, [sp, #16]
    266c:	a9425bf5 	ldp	x21, x22, [sp, #32]
    2670:	a8c37bfd 	ldp	x29, x30, [sp], #48
    2674:	d65f03c0 	ret

0000000000002678 <TEE_CopyObjectAttributes1>:
TEE_CopyObjectAttributes1():
/usr/src/debug/optee-os-stm32mp/4.0.0-stm32mp-r1/lib/libutee/tee_api_objects.c:512
    2678:	d10203ff 	sub	sp, sp, #0x80
    267c:	900000c2 	adrp	x2, 1a000 <_DYNAMIC>
    2680:	a9057bfd 	stp	x29, x30, [sp, #80]
    2684:	910143fd 	add	x29, sp, #0x50
    2688:	f9409842 	ldr	x2, [x2, #304]
    268c:	a90653f3 	stp	x19, x20, [sp, #96]
    2690:	aa0103f4 	mov	x20, x1
    2694:	f9003bf5 	str	x21, [sp, #112]
    2698:	aa0003f5 	mov	x21, x0
    269c:	f9400041 	ldr	x1, [x2]
    26a0:	f90027e1 	str	x1, [sp, #72]
    26a4:	d2800001 	mov	x1, #0x0                   	// #0
/usr/src/debug/optee-os-stm32mp/4.0.0-stm32mp-r1/lib/libutee/tee_api_objects.c:513
    26a8:	a900ffff 	stp	xzr, xzr, [sp, #8]
/usr/src/debug/optee-os-stm32mp/4.0.0-stm32mp-r1/lib/libutee/tee_api_objects.c:517
    26ac:	910023e1 	add	x1, sp, #0x8
/usr/src/debug/optee-os-stm32mp/4.0.0-stm32mp-r1/lib/libutee/tee_api_objects.c:513
    26b0:	f9000fff 	str	xzr, [sp, #24]
    26b4:	b90023ff 	str	wzr, [sp, #32]
/usr/src/debug/optee-os-stm32mp/4.0.0-stm32mp-r1/lib/libutee/tee_api_objects.c:514
    26b8:	a902ffff 	stp	xzr, xzr, [sp, #40]
    26bc:	f9001fff 	str	xzr, [sp, #56]
    26c0:	b90043ff 	str	wzr, [sp, #64]
/usr/src/debug/optee-os-stm32mp/4.0.0-stm32mp-r1/lib/libutee/tee_api_objects.c:517
    26c4:	94001709 	bl	82e8 <_utee_cryp_obj_get_info>
    26c8:	2a0003f3 	mov	w19, w0
/usr/src/debug/optee-os-stm32mp/4.0.0-stm32mp-r1/lib/libutee/tee_api_objects.c:518
    26cc:	350002a0 	cbnz	w0, 2720 <TEE_CopyObjectAttributes1+0xa8>
/usr/src/debug/optee-os-stm32mp/4.0.0-stm32mp-r1/lib/libutee/tee_api_objects.c:521
    26d0:	9100a3e1 	add	x1, sp, #0x28
    26d4:	aa1403e0 	mov	x0, x20
    26d8:	94001704 	bl	82e8 <_utee_cryp_obj_get_info>
    26dc:	2a0003f3 	mov	w19, w0
/usr/src/debug/optee-os-stm32mp/4.0.0-stm32mp-r1/lib/libutee/tee_api_objects.c:522
    26e0:	35000200 	cbnz	w0, 2720 <TEE_CopyObjectAttributes1+0xa8>
/usr/src/debug/optee-os-stm32mp/4.0.0-stm32mp-r1/lib/libutee/tee_api_objects.c:525
    26e4:	b94043e1 	ldr	w1, [sp, #64]
    26e8:	37880041 	tbnz	w1, #17, 26f0 <TEE_CopyObjectAttributes1+0x78>
/usr/src/debug/optee-os-stm32mp/4.0.0-stm32mp-r1/lib/libutee/tee_api_objects.c:526
    26ec:	94001477 	bl	78c8 <TEE_Panic>
/usr/src/debug/optee-os-stm32mp/4.0.0-stm32mp-r1/lib/libutee/tee_api_objects.c:528
    26f0:	b94023e0 	ldr	w0, [sp, #32]
    26f4:	36800060 	tbz	w0, #16, 2700 <TEE_CopyObjectAttributes1+0x88>
/usr/src/debug/optee-os-stm32mp/4.0.0-stm32mp-r1/lib/libutee/tee_api_objects.c:529
    26f8:	52800000 	mov	w0, #0x0                   	// #0
    26fc:	94001473 	bl	78c8 <TEE_Panic>
/usr/src/debug/optee-os-stm32mp/4.0.0-stm32mp-r1/lib/libutee/tee_api_objects.c:531
    2700:	b94023e0 	ldr	w0, [sp, #32]
    2704:	36880060 	tbz	w0, #17, 2710 <TEE_CopyObjectAttributes1+0x98>
/usr/src/debug/optee-os-stm32mp/4.0.0-stm32mp-r1/lib/libutee/tee_api_objects.c:532
    2708:	52800000 	mov	w0, #0x0                   	// #0
    270c:	9400146f 	bl	78c8 <TEE_Panic>
/usr/src/debug/optee-os-stm32mp/4.0.0-stm32mp-r1/lib/libutee/tee_api_objects.c:534
    2710:	aa1403e1 	mov	x1, x20
    2714:	aa1503e0 	mov	x0, x21
    2718:	94001709 	bl	833c <_utee_cryp_obj_copy>
    271c:	2a0003f3 	mov	w19, w0
/usr/src/debug/optee-os-stm32mp/4.0.0-stm32mp-r1/lib/libutee/tee_api_objects.c:539
    2720:	121e7a60 	and	w0, w19, #0xfffffffd
/usr/src/debug/optee-os-stm32mp/4.0.0-stm32mp-r1/lib/libutee/tee_api_objects.c:538
    2724:	7100027f 	cmp	w19, #0x0
    2728:	52800021 	mov	w1, #0x1                   	// #1
    272c:	72be0201 	movk	w1, #0xf010, lsl #16
    2730:	7a411004 	ccmp	w0, w1, #0x4, ne	// ne = any
    2734:	54000060 	b.eq	2740 <TEE_CopyObjectAttributes1+0xc8>  // b.none
/usr/src/debug/optee-os-stm32mp/4.0.0-stm32mp-r1/lib/libutee/tee_api_objects.c:541
    2738:	2a1303e0 	mov	w0, w19
    273c:	94001463 	bl	78c8 <TEE_Panic>
/usr/src/debug/optee-os-stm32mp/4.0.0-stm32mp-r1/lib/libutee/tee_api_objects.c:544
    2740:	900000c2 	adrp	x2, 1a000 <_DYNAMIC>
    2744:	f9409842 	ldr	x2, [x2, #304]
    2748:	f94027e0 	ldr	x0, [sp, #72]
    274c:	f9400041 	ldr	x1, [x2]
    2750:	eb010000 	subs	x0, x0, x1
    2754:	d2800001 	mov	x1, #0x0                   	// #0
    2758:	54000040 	b.eq	2760 <TEE_CopyObjectAttributes1+0xe8>  // b.none
    275c:	97fff79d 	bl	5d0 <__stack_chk_fail>
    2760:	a9457bfd 	ldp	x29, x30, [sp, #80]
    2764:	2a1303e0 	mov	w0, w19
    2768:	a94653f3 	ldp	x19, x20, [sp, #96]
    276c:	f9403bf5 	ldr	x21, [sp, #112]
    2770:	910203ff 	add	sp, sp, #0x80
    2774:	d65f03c0 	ret

0000000000002778 <TEE_CopyObjectAttributes>:
TEE_CopyObjectAttributes():
/usr/src/debug/optee-os-stm32mp/4.0.0-stm32mp-r1/lib/libutee/tee_api_objects.c:497
    2778:	d10143ff 	sub	sp, sp, #0x50
    277c:	900000c2 	adrp	x2, 1a000 <_DYNAMIC>
    2780:	a9037bfd 	stp	x29, x30, [sp, #48]
    2784:	9100c3fd 	add	x29, sp, #0x30
    2788:	f9409842 	ldr	x2, [x2, #304]
    278c:	a90453f3 	stp	x19, x20, [sp, #64]
    2790:	aa0103f3 	mov	x19, x1
    2794:	aa0003f4 	mov	x20, x0
    2798:	f9400040 	ldr	x0, [x2]
    279c:	f90017e0 	str	x0, [sp, #40]
    27a0:	d2800000 	mov	x0, #0x0                   	// #0
/usr/src/debug/optee-os-stm32mp/4.0.0-stm32mp-r1/lib/libutee/tee_api_objects.c:501
    27a4:	910023e1 	add	x1, sp, #0x8
    27a8:	aa1303e0 	mov	x0, x19
/usr/src/debug/optee-os-stm32mp/4.0.0-stm32mp-r1/lib/libutee/tee_api_objects.c:498
    27ac:	a900ffff 	stp	xzr, xzr, [sp, #8]
    27b0:	f9000fff 	str	xzr, [sp, #24]
    27b4:	b90023ff 	str	wzr, [sp, #32]
/usr/src/debug/optee-os-stm32mp/4.0.0-stm32mp-r1/lib/libutee/tee_api_objects.c:501
    27b8:	940016cc 	bl	82e8 <_utee_cryp_obj_get_info>
/usr/src/debug/optee-os-stm32mp/4.0.0-stm32mp-r1/lib/libutee/tee_api_objects.c:502
    27bc:	b9400be1 	ldr	w1, [sp, #8]
    27c0:	528017c0 	mov	w0, #0xbe                  	// #190
    27c4:	72b40000 	movk	w0, #0xa000, lsl #16
    27c8:	6b00003f 	cmp	w1, w0
    27cc:	540000c0 	b.eq	27e4 <TEE_CopyObjectAttributes+0x6c>  // b.none
/usr/src/debug/optee-os-stm32mp/4.0.0-stm32mp-r1/lib/libutee/tee_api_objects.c:505
    27d0:	aa1303e1 	mov	x1, x19
    27d4:	aa1403e0 	mov	x0, x20
    27d8:	97ffffa8 	bl	2678 <TEE_CopyObjectAttributes1>
/usr/src/debug/optee-os-stm32mp/4.0.0-stm32mp-r1/lib/libutee/tee_api_objects.c:506
    27dc:	34000040 	cbz	w0, 27e4 <TEE_CopyObjectAttributes+0x6c>
/usr/src/debug/optee-os-stm32mp/4.0.0-stm32mp-r1/lib/libutee/tee_api_objects.c:507
    27e0:	9400143a 	bl	78c8 <TEE_Panic>
/usr/src/debug/optee-os-stm32mp/4.0.0-stm32mp-r1/lib/libutee/tee_api_objects.c:508
    27e4:	900000c2 	adrp	x2, 1a000 <_DYNAMIC>
    27e8:	f9409842 	ldr	x2, [x2, #304]
    27ec:	f94017e0 	ldr	x0, [sp, #40]
    27f0:	f9400041 	ldr	x1, [x2]
    27f4:	eb010000 	subs	x0, x0, x1
    27f8:	d2800001 	mov	x1, #0x0                   	// #0
    27fc:	54000040 	b.eq	2804 <TEE_CopyObjectAttributes+0x8c>  // b.none
    2800:	97fff774 	bl	5d0 <__stack_chk_fail>
    2804:	a9437bfd 	ldp	x29, x30, [sp, #48]
    2808:	a94453f3 	ldp	x19, x20, [sp, #64]
    280c:	910143ff 	add	sp, sp, #0x50
    2810:	d65f03c0 	ret

0000000000002814 <TEE_GenerateKey>:
TEE_GenerateKey():
/usr/src/debug/optee-os-stm32mp/4.0.0-stm32mp-r1/lib/libutee/tee_api_objects.c:548
    2814:	a9bc7bfd 	stp	x29, x30, [sp, #-64]!
    2818:	900000c4 	adrp	x4, 1a000 <_DYNAMIC>
    281c:	910003fd 	mov	x29, sp
    2820:	a90153f3 	stp	x19, x20, [sp, #16]
    2824:	aa0203f4 	mov	x20, x2
    2828:	a9025bf5 	stp	x21, x22, [sp, #32]
    282c:	aa0003f5 	mov	x21, x0
    2830:	2a0103f6 	mov	w22, w1
    2834:	a90363f7 	stp	x23, x24, [sp, #48]
    2838:	d10043ff 	sub	sp, sp, #0x10
    283c:	2a0303f8 	mov	w24, w3
    2840:	f9409884 	ldr	x4, [x4, #304]
/usr/src/debug/optee-os-stm32mp/4.0.0-stm32mp-r1/lib/libutee/tee_api_objects.c:552
    2844:	aa1803e1 	mov	x1, x24
/usr/src/debug/optee-os-stm32mp/4.0.0-stm32mp-r1/lib/libutee/tee_api_objects.c:548
    2848:	f9400080 	ldr	x0, [x4]
    284c:	f81f83a0 	stur	x0, [x29, #-8]
    2850:	d2800000 	mov	x0, #0x0                   	// #0
/usr/src/debug/optee-os-stm32mp/4.0.0-stm32mp-r1/lib/libutee/tee_api_objects.c:550
    2854:	52800304 	mov	w4, #0x18                  	// #24
/usr/src/debug/optee-os-stm32mp/4.0.0-stm32mp-r1/lib/libutee/tee_api_objects.c:552
    2858:	aa0203e0 	mov	x0, x2
/usr/src/debug/optee-os-stm32mp/4.0.0-stm32mp-r1/lib/libutee/tee_api_objects.c:550
    285c:	9ba47f04 	umull	x4, w24, w4
    2860:	91003c84 	add	x4, x4, #0xf
    2864:	927c8484 	and	x4, x4, #0x3ffffffff0
    2868:	cb2463ff 	sub	sp, sp, x4
    286c:	910003f7 	mov	x23, sp
/usr/src/debug/optee-os-stm32mp/4.0.0-stm32mp-r1/lib/libutee/tee_api_objects.c:552
    2870:	94001465 	bl	7a04 <__utee_check_attr_in_annotation>
/usr/src/debug/optee-os-stm32mp/4.0.0-stm32mp-r1/lib/libutee/tee_api_objects.c:554
    2874:	2a1803e2 	mov	w2, w24
    2878:	aa1403e1 	mov	x1, x20
    287c:	aa1703e0 	mov	x0, x23
    2880:	97fffc3b 	bl	196c <__utee_from_attr>
/usr/src/debug/optee-os-stm32mp/4.0.0-stm32mp-r1/lib/libutee/tee_api_objects.c:555
    2884:	2a1603e1 	mov	w1, w22
    2888:	aa1803e3 	mov	x3, x24
    288c:	aa1703e2 	mov	x2, x23
    2890:	aa1503e0 	mov	x0, x21
    2894:	940016ef 	bl	8450 <_utee_cryp_obj_generate_key>
/usr/src/debug/optee-os-stm32mp/4.0.0-stm32mp-r1/lib/libutee/tee_api_objects.c:558
    2898:	7100001f 	cmp	w0, #0x0
    289c:	129fff21 	mov	w1, #0xffff0006            	// #-65530
/usr/src/debug/optee-os-stm32mp/4.0.0-stm32mp-r1/lib/libutee/tee_api_objects.c:555
    28a0:	2a0003f3 	mov	w19, w0
/usr/src/debug/optee-os-stm32mp/4.0.0-stm32mp-r1/lib/libutee/tee_api_objects.c:558
    28a4:	7a411004 	ccmp	w0, w1, #0x4, ne	// ne = any
    28a8:	54000040 	b.eq	28b0 <TEE_GenerateKey+0x9c>  // b.none
/usr/src/debug/optee-os-stm32mp/4.0.0-stm32mp-r1/lib/libutee/tee_api_objects.c:559
    28ac:	94001407 	bl	78c8 <TEE_Panic>
/usr/src/debug/optee-os-stm32mp/4.0.0-stm32mp-r1/lib/libutee/tee_api_objects.c:562
    28b0:	900000c4 	adrp	x4, 1a000 <_DYNAMIC>
    28b4:	f9409884 	ldr	x4, [x4, #304]
    28b8:	f85f83a0 	ldur	x0, [x29, #-8]
    28bc:	f9400081 	ldr	x1, [x4]
    28c0:	eb010000 	subs	x0, x0, x1
    28c4:	d2800001 	mov	x1, #0x0                   	// #0
    28c8:	54000040 	b.eq	28d0 <TEE_GenerateKey+0xbc>  // b.none
    28cc:	97fff741 	bl	5d0 <__stack_chk_fail>
    28d0:	910003bf 	mov	sp, x29
    28d4:	2a1303e0 	mov	w0, w19
    28d8:	a94153f3 	ldp	x19, x20, [sp, #16]
    28dc:	a9425bf5 	ldp	x21, x22, [sp, #32]
    28e0:	a94363f7 	ldp	x23, x24, [sp, #48]
    28e4:	a8c47bfd 	ldp	x29, x30, [sp], #64
    28e8:	d65f03c0 	ret

00000000000028ec <__GP11_TEE_GenerateKey>:
__GP11_TEE_GenerateKey():
/usr/src/debug/optee-os-stm32mp/4.0.0-stm32mp-r1/lib/libutee/tee_api_objects.c:567
    28ec:	a9bc7bfd 	stp	x29, x30, [sp, #-64]!
    28f0:	900000c4 	adrp	x4, 1a000 <_DYNAMIC>
    28f4:	910003fd 	mov	x29, sp
    28f8:	a90153f3 	stp	x19, x20, [sp, #16]
    28fc:	aa0203f4 	mov	x20, x2
    2900:	a9025bf5 	stp	x21, x22, [sp, #32]
    2904:	aa0003f5 	mov	x21, x0
    2908:	2a0103f6 	mov	w22, w1
    290c:	a90363f7 	stp	x23, x24, [sp, #48]
    2910:	d10043ff 	sub	sp, sp, #0x10
    2914:	2a0303f8 	mov	w24, w3
    2918:	f9409884 	ldr	x4, [x4, #304]
/usr/src/debug/optee-os-stm32mp/4.0.0-stm32mp-r1/lib/libutee/tee_api_objects.c:571
    291c:	aa1803e1 	mov	x1, x24
/usr/src/debug/optee-os-stm32mp/4.0.0-stm32mp-r1/lib/libutee/tee_api_objects.c:567
    2920:	f9400080 	ldr	x0, [x4]
    2924:	f81f83a0 	stur	x0, [x29, #-8]
    2928:	d2800000 	mov	x0, #0x0                   	// #0
/usr/src/debug/optee-os-stm32mp/4.0.0-stm32mp-r1/lib/libutee/tee_api_objects.c:569
    292c:	52800304 	mov	w4, #0x18                  	// #24
/usr/src/debug/optee-os-stm32mp/4.0.0-stm32mp-r1/lib/libutee/tee_api_objects.c:571
    2930:	aa0203e0 	mov	x0, x2
/usr/src/debug/optee-os-stm32mp/4.0.0-stm32mp-r1/lib/libutee/tee_api_objects.c:569
    2934:	9ba47f04 	umull	x4, w24, w4
    2938:	91003c84 	add	x4, x4, #0xf
    293c:	927c8484 	and	x4, x4, #0x3ffffffff0
    2940:	cb2463ff 	sub	sp, sp, x4
    2944:	910003f7 	mov	x23, sp
/usr/src/debug/optee-os-stm32mp/4.0.0-stm32mp-r1/lib/libutee/tee_api_objects.c:571
    2948:	9400143b 	bl	7a34 <__utee_check_gp11_attr_in_annotation>
/usr/src/debug/optee-os-stm32mp/4.0.0-stm32mp-r1/lib/libutee/tee_api_objects.c:573
    294c:	2a1803e2 	mov	w2, w24
    2950:	aa1403e1 	mov	x1, x20
    2954:	aa1703e0 	mov	x0, x23
    2958:	97fffc19 	bl	19bc <__utee_from_gp11_attr>
/usr/src/debug/optee-os-stm32mp/4.0.0-stm32mp-r1/lib/libutee/tee_api_objects.c:574
    295c:	2a1603e1 	mov	w1, w22
    2960:	aa1803e3 	mov	x3, x24
    2964:	aa1703e2 	mov	x2, x23
    2968:	aa1503e0 	mov	x0, x21
    296c:	940016b9 	bl	8450 <_utee_cryp_obj_generate_key>
/usr/src/debug/optee-os-stm32mp/4.0.0-stm32mp-r1/lib/libutee/tee_api_objects.c:577
    2970:	7100001f 	cmp	w0, #0x0
    2974:	129fff21 	mov	w1, #0xffff0006            	// #-65530
/usr/src/debug/optee-os-stm32mp/4.0.0-stm32mp-r1/lib/libutee/tee_api_objects.c:574
    2978:	2a0003f3 	mov	w19, w0
/usr/src/debug/optee-os-stm32mp/4.0.0-stm32mp-r1/lib/libutee/tee_api_objects.c:577
    297c:	7a411004 	ccmp	w0, w1, #0x4, ne	// ne = any
    2980:	54000040 	b.eq	2988 <__GP11_TEE_GenerateKey+0x9c>  // b.none
/usr/src/debug/optee-os-stm32mp/4.0.0-stm32mp-r1/lib/libutee/tee_api_objects.c:578
    2984:	940013d1 	bl	78c8 <TEE_Panic>
/usr/src/debug/optee-os-stm32mp/4.0.0-stm32mp-r1/lib/libutee/tee_api_objects.c:581
    2988:	900000c4 	adrp	x4, 1a000 <_DYNAMIC>
    298c:	f9409884 	ldr	x4, [x4, #304]
    2990:	f85f83a0 	ldur	x0, [x29, #-8]
    2994:	f9400081 	ldr	x1, [x4]
    2998:	eb010000 	subs	x0, x0, x1
    299c:	d2800001 	mov	x1, #0x0                   	// #0
    29a0:	54000040 	b.eq	29a8 <__GP11_TEE_GenerateKey+0xbc>  // b.none
    29a4:	97fff70b 	bl	5d0 <__stack_chk_fail>
    29a8:	910003bf 	mov	sp, x29
    29ac:	2a1303e0 	mov	w0, w19
    29b0:	a94153f3 	ldp	x19, x20, [sp, #16]
    29b4:	a9425bf5 	ldp	x21, x22, [sp, #32]
    29b8:	a94363f7 	ldp	x23, x24, [sp, #48]
    29bc:	a8c47bfd 	ldp	x29, x30, [sp], #64
    29c0:	d65f03c0 	ret

00000000000029c4 <TEE_OpenPersistentObject>:
TEE_OpenPersistentObject():
/usr/src/debug/optee-os-stm32mp/4.0.0-stm32mp-r1/lib/libutee/tee_api_objects.c:588
    29c4:	d10143ff 	sub	sp, sp, #0x50
    29c8:	900000c5 	adrp	x5, 1a000 <_DYNAMIC>
    29cc:	a9017bfd 	stp	x29, x30, [sp, #16]
    29d0:	910043fd 	add	x29, sp, #0x10
    29d4:	f94098a5 	ldr	x5, [x5, #304]
    29d8:	a90253f3 	stp	x19, x20, [sp, #32]
    29dc:	2a0003f3 	mov	w19, w0
    29e0:	a9035bf5 	stp	x21, x22, [sp, #48]
    29e4:	aa0403f4 	mov	x20, x4
    29e8:	aa0103f5 	mov	x21, x1
    29ec:	f90023f7 	str	x23, [sp, #64]
